   1              		.cpu arm7tdmi
   2              		.fpu softvfp
   3              		.eabi_attribute 20, 1
   4              		.eabi_attribute 21, 1
   5              		.eabi_attribute 23, 3
   6              		.eabi_attribute 24, 1
   7              		.eabi_attribute 25, 1
   8              		.eabi_attribute 26, 1
   9              		.eabi_attribute 30, 6
  10              		.eabi_attribute 18, 4
  11              		.file	"8led.c"
  21              	.Ltext0:
  22              		.file 1 "../8led.c"
 1889              		.align	2
 1892              	blink:
 1893 0000 00000000 		.space	4
 1894              		.global	blink_number
 1895              		.data
 1896              		.align	2
 1899              	blink_number:
 1900 0000 FFFFFFFF 		.word	-1
 1901              		.align	2
 1904              	Symbol:
 1905 0004 12FFFFFF 		.word	-238
 1906 0008 9FFFFFFF 		.word	-97
 1907 000c 31FFFFFF 		.word	-207
 1908 0010 15FFFFFF 		.word	-235
 1909 0014 9CFFFFFF 		.word	-100
 1910 0018 54FFFFFF 		.word	-172
 1911 001c D0FFFFFF 		.word	-48
 1912 0020 1FFFFFFF 		.word	-225
 1913 0024 10FFFFFF 		.word	-240
 1914 0028 1CFFFFFF 		.word	-228
 1915 002c 18FFFFFF 		.word	-232
 1916 0030 D0FFFFFF 		.word	-48
 1917 0034 72FFFFFF 		.word	-142
 1918 0038 91FFFFFF 		.word	-111
 1919 003c 70FFFFFF 		.word	-144
 1920 0040 78FFFFFF 		.word	-136
 1921 0044 FFFFFFFF 		.word	-1
 1922              		.text
 1923              		.align	2
 1924              		.global	D8Led_init
 1926              	D8Led_init:
 1927              	.LFB0:
   1:../8led.c     **** /*********************************************************************************************
   2:../8led.c     **** * Fichero:	8led.c
   3:../8led.c     **** * Autor:
   4:../8led.c     **** * Descrip:	Funciones de control del display 8-segmentos
   5:../8led.c     **** * Version:
   6:../8led.c     **** *********************************************************************************************/
   7:../8led.c     **** 
   8:../8led.c     **** /*--- ficheros de cabecera ---*/
   9:../8led.c     **** #include "8led.h"
  10:../8led.c     **** #include "44b.h"
  11:../8led.c     **** #include "44blib.h"
  12:../8led.c     **** #include "latido.h"
  13:../8led.c     **** 
  14:../8led.c     **** /*--- variables globales del módulo ---*/
  15:../8led.c     **** int blink=0;
  16:../8led.c     **** int blink_number=blank;
  17:../8led.c     **** /* tabla de segmentos */
  18:../8led.c     **** static int
  19:../8led.c     **** Symbol[size_8led] = { cero, uno, dos, tres, cuatro, cinco, seis, siete, ocho, nueve, A, B, C, D, E,
  20:../8led.c     **** 
  21:../8led.c     **** /*--- código de las funciones ---*/
  22:../8led.c     **** void D8Led_init(void)
  23:../8led.c     **** {
 1928              		.loc 1 23 0
 1929              		.cfi_startproc
 1930              		@ Function supports interworking.
 1931              		@ args = 0, pretend = 0, frame = 0
 1932              		@ frame_needed = 1, uses_anonymous_args = 0
 1933 0000 0DC0A0E1 		mov	ip, sp
 1934              	.LCFI0:
 1935              		.cfi_def_cfa_register 12
 1936 0004 00D82DE9 		stmfd	sp!, {fp, ip, lr, pc}
 1937 0008 04B04CE2 		sub	fp, ip, #4
 1938              		.cfi_offset 14, -8
 1939              		.cfi_offset 13, -12
 1940              		.cfi_offset 11, -16
 1941              	.LCFI1:
 1942              		.cfi_def_cfa 11, 4
  24:../8led.c     **** #ifndef EMU
  25:../8led.c     **** 	/* Estado inicial del display con todos los segmentos iluminados
  26:../8led.c     **** 	   (buscar en los ficheros de cabecera la direccion implicada) */
  27:../8led.c     **** 	LED8ADDR = (unsigned char) cero;
 1943              		.loc 1 27 0
 1944 000c 8537A0E3 		mov	r3, #34865152
 1945 0010 1220A0E3 		mov	r2, #18
 1946 0014 0020C3E5 		strb	r2, [r3, #0]
  28:../8led.c     **** #endif
  29:../8led.c     **** }
 1947              		.loc 1 29 0
 1948 0018 0CD04BE2 		sub	sp, fp, #12
 1949 001c 00689DE8 		ldmfd	sp, {fp, sp, lr}
 1950 0020 1EFF2FE1 		bx	lr
 1951              		.cfi_endproc
 1952              	.LFE0:
 1954              		.align	2
 1955              		.global	D8Led_symbol
 1957              	D8Led_symbol:
 1958              	.LFB1:
  30:../8led.c     **** 
  31:../8led.c     **** void D8Led_symbol(int value)
  32:../8led.c     **** {
 1959              		.loc 1 32 0
 1960              		.cfi_startproc
 1961              		@ Function supports interworking.
 1962              		@ args = 0, pretend = 0, frame = 8
 1963              		@ frame_needed = 1, uses_anonymous_args = 0
 1964 0024 0DC0A0E1 		mov	ip, sp
 1965              	.LCFI2:
 1966              		.cfi_def_cfa_register 12
 1967 0028 00D82DE9 		stmfd	sp!, {fp, ip, lr, pc}
 1968 002c 04B04CE2 		sub	fp, ip, #4
 1969              		.cfi_offset 14, -8
 1970              		.cfi_offset 13, -12
 1971              		.cfi_offset 11, -16
 1972              	.LCFI3:
 1973              		.cfi_def_cfa 11, 4
 1974 0030 08D04DE2 		sub	sp, sp, #8
 1975 0034 10000BE5 		str	r0, [fp, #-16]
  33:../8led.c     **** #ifndef EMU
  34:../8led.c     **** 	/* muestra el Symbol[value] en el display (analogo al caso anterior) */
  35:../8led.c     **** 	if ((value >= 0) && (value < size_8led)) {
 1976              		.loc 1 35 0
 1977 0038 10301BE5 		ldr	r3, [fp, #-16]
 1978 003c 000053E3 		cmp	r3, #0
 1979 0040 080000BA 		blt	.L2
 1980              		.loc 1 35 0 is_stmt 0 discriminator 1
 1981 0044 10301BE5 		ldr	r3, [fp, #-16]
 1982 0048 100053E3 		cmp	r3, #16
 1983 004c 050000CA 		bgt	.L2
  36:../8led.c     **** 		LED8ADDR = (unsigned char) Symbol[value];
 1984              		.loc 1 36 0 is_stmt 1
 1985 0050 8537A0E3 		mov	r3, #34865152
 1986 0054 18209FE5 		ldr	r2, .L4
 1987 0058 10101BE5 		ldr	r1, [fp, #-16]
 1988 005c 012192E7 		ldr	r2, [r2, r1, asl #2]
 1989 0060 FF2002E2 		and	r2, r2, #255
 1990 0064 0020C3E5 		strb	r2, [r3, #0]
 1991              	.L2:
  37:../8led.c     **** 	}
  38:../8led.c     **** #endif
  39:../8led.c     **** }
 1992              		.loc 1 39 0
 1993 0068 0CD04BE2 		sub	sp, fp, #12
 1994 006c 00689DE8 		ldmfd	sp, {fp, sp, lr}
 1995 0070 1EFF2FE1 		bx	lr
 1996              	.L5:
 1997              		.align	2
 1998              	.L4:
 1999 0074 04000000 		.word	Symbol
 2000              		.cfi_endproc
 2001              	.LFE1:
 2003              		.align	2
 2004              		.global	timer_callback
 2006              	timer_callback:
 2007              	.LFB2:
  40:../8led.c     **** 
  41:../8led.c     **** void timer_callback()
  42:../8led.c     **** {
 2008              		.loc 1 42 0
 2009              		.cfi_startproc
 2010              		@ Function supports interworking.
 2011              		@ args = 0, pretend = 0, frame = 0
 2012              		@ frame_needed = 1, uses_anonymous_args = 0
 2013 0078 0DC0A0E1 		mov	ip, sp
 2014              	.LCFI4:
 2015              		.cfi_def_cfa_register 12
 2016 007c 00D82DE9 		stmfd	sp!, {fp, ip, lr, pc}
 2017 0080 04B04CE2 		sub	fp, ip, #4
 2018              		.cfi_offset 14, -8
 2019              		.cfi_offset 13, -12
 2020              		.cfi_offset 11, -16
 2021              	.LCFI5:
 2022              		.cfi_def_cfa 11, 4
  43:../8led.c     **** 	if(blink){
 2023              		.loc 1 43 0
 2024 0084 58309FE5 		ldr	r3, .L9
 2025 0088 003093E5 		ldr	r3, [r3, #0]
 2026 008c 000053E3 		cmp	r3, #0
 2027 0090 0700000A 		beq	.L7
  44:../8led.c     **** 		D8Led_symbol(blink_number);
 2028              		.loc 1 44 0
 2029 0094 4C309FE5 		ldr	r3, .L9+4
 2030 0098 003093E5 		ldr	r3, [r3, #0]
 2031 009c 0300A0E1 		mov	r0, r3
 2032 00a0 FEFFFFEB 		bl	D8Led_symbol
  45:../8led.c     **** 		blink=0;
 2033              		.loc 1 45 0
 2034 00a4 38309FE5 		ldr	r3, .L9
 2035 00a8 0020A0E3 		mov	r2, #0
 2036 00ac 002083E5 		str	r2, [r3, #0]
 2037 00b0 040000EA 		b	.L8
 2038              	.L7:
  46:../8led.c     **** 	}else{
  47:../8led.c     **** 		D8Led_symbol(blank);
 2039              		.loc 1 47 0
 2040 00b4 0000E0E3 		mvn	r0, #0
 2041 00b8 FEFFFFEB 		bl	D8Led_symbol
  48:../8led.c     **** 		blink=1;
 2042              		.loc 1 48 0
 2043 00bc 20309FE5 		ldr	r3, .L9
 2044 00c0 0120A0E3 		mov	r2, #1
 2045 00c4 002083E5 		str	r2, [r3, #0]
 2046              	.L8:
  49:../8led.c     **** 	}
  50:../8led.c     **** 	D8Led_blink(blink_number);
 2047              		.loc 1 50 0
 2048 00c8 18309FE5 		ldr	r3, .L9+4
 2049 00cc 003093E5 		ldr	r3, [r3, #0]
 2050 00d0 0300A0E1 		mov	r0, r3
 2051 00d4 FEFFFFEB 		bl	D8Led_blink
  51:../8led.c     **** }
 2052              		.loc 1 51 0
 2053 00d8 0CD04BE2 		sub	sp, fp, #12
 2054 00dc 00689DE8 		ldmfd	sp, {fp, sp, lr}
 2055 00e0 1EFF2FE1 		bx	lr
 2056              	.L10:
 2057              		.align	2
 2058              	.L9:
 2059 00e4 00000000 		.word	blink
 2060 00e8 00000000 		.word	blink_number
 2061              		.cfi_endproc
 2062              	.LFE2:
 2064              		.align	2
 2065              		.global	D8Led_blink
 2067              	D8Led_blink:
 2068              	.LFB3:
  52:../8led.c     **** 
  53:../8led.c     **** void D8Led_blink(int value)
  54:../8led.c     **** {
 2069              		.loc 1 54 0
 2070              		.cfi_startproc
 2071              		@ Function supports interworking.
 2072              		@ args = 0, pretend = 0, frame = 8
 2073              		@ frame_needed = 1, uses_anonymous_args = 0
 2074 00ec 0DC0A0E1 		mov	ip, sp
 2075              	.LCFI6:
 2076              		.cfi_def_cfa_register 12
 2077 00f0 00D82DE9 		stmfd	sp!, {fp, ip, lr, pc}
 2078 00f4 04B04CE2 		sub	fp, ip, #4
 2079              		.cfi_offset 14, -8
 2080              		.cfi_offset 13, -12
 2081              		.cfi_offset 11, -16
 2082              	.LCFI7:
 2083              		.cfi_def_cfa 11, 4
 2084 00f8 08D04DE2 		sub	sp, sp, #8
 2085 00fc 10000BE5 		str	r0, [fp, #-16]
  55:../8led.c     **** #ifndef EMU
  56:../8led.c     **** 	blink_number=value;
 2086              		.loc 1 56 0
 2087 0100 20309FE5 		ldr	r3, .L12
 2088 0104 10201BE5 		ldr	r2, [fp, #-16]
 2089 0108 002083E5 		str	r2, [r3, #0]
  57:../8led.c     **** 	espera_ticks(25,timer_callback);
 2090              		.loc 1 57 0
 2091 010c 18309FE5 		ldr	r3, .L12+4
 2092 0110 1900A0E3 		mov	r0, #25
 2093 0114 0310A0E1 		mov	r1, r3
 2094 0118 FEFFFFEB 		bl	espera_ticks
  58:../8led.c     **** #endif
  59:../8led.c     **** }
 2095              		.loc 1 59 0
 2096 011c 0CD04BE2 		sub	sp, fp, #12
 2097 0120 00689DE8 		ldmfd	sp, {fp, sp, lr}
 2098 0124 1EFF2FE1 		bx	lr
 2099              	.L13:
 2100              		.align	2
 2101              	.L12:
 2102 0128 00000000 		.word	blink_number
 2103 012c 00000000 		.word	timer_callback
 2104              		.cfi_endproc
 2105              	.LFE3:
 2107              	.Letext0: