   1              		.cpu arm7tdmi
   2              		.fpu softvfp
   3              		.eabi_attribute 20, 1
   4              		.eabi_attribute 21, 1
   5              		.eabi_attribute 23, 3
   6              		.eabi_attribute 24, 1
   7              		.eabi_attribute 25, 1
   8              		.eabi_attribute 26, 1
   9              		.eabi_attribute 30, 6
  10              		.eabi_attribute 18, 4
  11              		.file	"main.c"
  21              	.Ltext0:
  22              		.file 1 "../main.c"
 1912              		.align	2
 1913              		.global	Main
 1915              	Main:
 1916              	.LFB0:
   1:../main.c     **** /*********************************************************************************************
   2:../main.c     **** * Fichero:	main.c
   3:../main.c     **** * Autor:
   4:../main.c     **** * Descrip:	punto de entrada de C
   5:../main.c     **** * Version:  <P4-ARM.timer-leds>
   6:../main.c     **** *********************************************************************************************/
   7:../main.c     **** 
   8:../main.c     **** /*--- ficheros de cabecera ---*/
   9:../main.c     **** #include "8led.h"
  10:../main.c     **** #include "button.h"
  11:../main.c     **** #include "led.h"
  12:../main.c     **** #include "timer.h"
  13:../main.c     **** #include "timer2.h"
  14:../main.c     **** #include "44blib.h"
  15:../main.c     **** #include "44b.h"
  16:../main.c     **** /*--- variables globales ---*/
  17:../main.c     **** 
  18:../main.c     **** 
  19:../main.c     **** /*--- codigo de funciones ---*/
  20:../main.c     **** void Main(void)
  21:../main.c     **** {
 1917              		.loc 1 21 0
 1918              		.cfi_startproc
 1919              		@ Function supports interworking.
 1920              		@ args = 0, pretend = 0, frame = 8
 1921              		@ frame_needed = 1, uses_anonymous_args = 0
 1922 0000 0DC0A0E1 		mov	ip, sp
 1923              	.LCFI0:
 1924              		.cfi_def_cfa_register 12
 1925 0004 00D82DE9 		stmfd	sp!, {fp, ip, lr, pc}
 1926 0008 04B04CE2 		sub	fp, ip, #4
 1927              		.cfi_offset 14, -8
 1928              		.cfi_offset 13, -12
 1929              		.cfi_offset 11, -16
 1930              	.LCFI1:
 1931              		.cfi_def_cfa 11, 4
 1932 000c 08D04DE2 		sub	sp, sp, #8
  22:../main.c     **** 	/* Inicializa controladores */
  23:../main.c     **** 	sys_init();         // Inicializacion de la placa, interrupciones y puertos
 1933              		.loc 1 23 0
 1934 0010 FEFFFFEB 		bl	sys_init
  24:../main.c     **** 	//timer_init();	    // Inicializacion del temporizador
  25:../main.c     **** 	Eint4567_init();	// inicializamos los pulsadores. Cada vez que se pulse se verá reflejado en el 8l
 1935              		.loc 1 25 0
 1936 0014 FEFFFFEB 		bl	Eint4567_init
  26:../main.c     **** 	D8Led_init();       // inicializamos el 8led
 1937              		.loc 1 26 0
 1938 0018 FEFFFFEB 		bl	D8Led_init
  27:../main.c     **** 	timer2_inicializar();
 1939              		.loc 1 27 0
 1940 001c FEFFFFEB 		bl	timer2_inicializar
  28:../main.c     **** 
  29:../main.c     **** 
  30:../main.c     **** 	/* Valor inicial de los leds */
  31:../main.c     **** 	leds_off();
 1941              		.loc 1 31 0
 1942 0020 FEFFFFEB 		bl	leds_off
  32:../main.c     **** 	unsigned int tiempo=0;
 1943              		.loc 1 32 0
 1944 0024 0030A0E3 		mov	r3, #0
 1945 0028 10300BE5 		str	r3, [fp, #-16]
  33:../main.c     **** 	//Dejamos los leds apagados
  34:../main.c     **** 	//led1_on();
  35:../main.c     **** 	timer2_empezar();
 1946              		.loc 1 35 0
 1947 002c FEFFFFEB 		bl	timer2_empezar
  36:../main.c     **** 	Delay(100000);
 1948              		.loc 1 36 0
 1949 0030 18009FE5 		ldr	r0, .L2
 1950 0034 FEFFFFEB 		bl	Delay
  37:../main.c     **** 	tiempo = timer2_leer();
 1951              		.loc 1 37 0
 1952 0038 FEFFFFEB 		bl	timer2_leer
 1953 003c 10000BE5 		str	r0, [fp, #-16]
  38:../main.c     **** 	//Iniciar reversi8;
  39:../main.c     **** 	reversi8();
 1954              		.loc 1 39 0
 1955 0040 FEFFFFEB 		bl	reversi8
  40:../main.c     **** 
  41:../main.c     **** /*	Codigo para cambiar los leds segun el timer
  42:../main.c     ****  * while (1)
  43:../main.c     **** 	{
  44:../main.c     **** 		// Cambia los leds con cada interrupcion del temporizador
  45:../main.c     **** 		if (switch_leds == 1)
  46:../main.c     **** 		{
  47:../main.c     **** 			leds_switch();
  48:../main.c     **** 			switch_leds = 0;
  49:../main.c     **** 		}
  50:../main.c     **** 	}*/
  51:../main.c     **** }
 1956              		.loc 1 51 0
 1957 0044 0CD04BE2 		sub	sp, fp, #12
 1958 0048 00689DE8 		ldmfd	sp, {fp, sp, lr}
 1959 004c 1EFF2FE1 		bx	lr
 1960              	.L3:
 1961              		.align	2
 1962              	.L2:
 1963 0050 A0860100 		.word	100000
 1964              		.cfi_endproc
 1965              	.LFE0:
 1967              	.Letext0: