   1              		.cpu arm7tdmi
   2              		.fpu softvfp
   3              		.eabi_attribute 20, 1
   4              		.eabi_attribute 21, 1
   5              		.eabi_attribute 23, 3
   6              		.eabi_attribute 24, 1
   7              		.eabi_attribute 25, 1
   8              		.eabi_attribute 26, 1
   9              		.eabi_attribute 30, 6
  10              		.eabi_attribute 18, 4
  11              		.file	"reversi8_2018.c"
  21              	.Ltext0:
  22              		.file 1 "../reversi8_2018.c"
 976              	NO:
 977 0000 00       		.space	1
 978              		.global	SI
 981              	SI:
 982 0001 01       		.byte	1
 983              		.global	CASILLA_OCUPADA
 986              	CASILLA_OCUPADA:
 987 0002 02       		.byte	2
 988 0003 00000000 		.align	3
 988      00
 991              	tabla_valor:
 992 0008 08       		.byte	8
 993 0009 02       		.byte	2
 994 000a 07       		.byte	7
 995 000b 03       		.byte	3
 996 000c 03       		.byte	3
 997 000d 07       		.byte	7
 998 000e 02       		.byte	2
 999 000f 08       		.byte	8
 1000 0010 02       		.byte	2
 1001 0011 01       		.byte	1
 1002 0012 04       		.byte	4
 1003 0013 04       		.byte	4
 1004 0014 04       		.byte	4
 1005 0015 04       		.byte	4
 1006 0016 01       		.byte	1
 1007 0017 02       		.byte	2
 1008 0018 07       		.byte	7
 1009 0019 04       		.byte	4
 1010 001a 06       		.byte	6
 1011 001b 05       		.byte	5
 1012 001c 05       		.byte	5
 1013 001d 06       		.byte	6
 1014 001e 04       		.byte	4
 1015 001f 07       		.byte	7
 1016 0020 03       		.byte	3
 1017 0021 04       		.byte	4
 1018 0022 05       		.byte	5
 1019 0023 00       		.byte	0
 1020 0024 00       		.byte	0
 1021 0025 05       		.byte	5
 1022 0026 04       		.byte	4
 1023 0027 03       		.byte	3
 1024 0028 03       		.byte	3
 1025 0029 04       		.byte	4
 1026 002a 05       		.byte	5
 1027 002b 00       		.byte	0
 1028 002c 00       		.byte	0
 1029 002d 05       		.byte	5
 1030 002e 04       		.byte	4
 1031 002f 03       		.byte	3
 1032 0030 07       		.byte	7
 1033 0031 04       		.byte	4
 1034 0032 06       		.byte	6
 1035 0033 05       		.byte	5
 1036 0034 05       		.byte	5
 1037 0035 06       		.byte	6
 1038 0036 04       		.byte	4
 1039 0037 07       		.byte	7
 1040 0038 02       		.byte	2
 1041 0039 01       		.byte	1
 1042 003a 04       		.byte	4
 1043 003b 04       		.byte	4
 1044 003c 04       		.byte	4
 1045 003d 04       		.byte	4
 1046 003e 01       		.byte	1
 1047 003f 02       		.byte	2
 1048 0040 08       		.byte	8
 1049 0041 02       		.byte	2
 1050 0042 07       		.byte	7
 1051 0043 03       		.byte	3
 1052 0044 03       		.byte	3
 1053 0045 07       		.byte	7
 1054 0046 02       		.byte	2
 1055 0047 08       		.byte	8
 1056              		.global	vSF
 1057              		.align	2
 1060              	vSF:
 1061 0048 FF       		.byte	-1
 1062 0049 FF       		.byte	-1
 1063 004a 00       		.byte	0
 1064 004b 01       		.byte	1
 1065 004c 01       		.byte	1
 1066 004d 01       		.byte	1
 1067 004e 00       		.byte	0
 1068 004f FF       		.byte	-1
 1069              		.global	vSC
 1070              		.align	2
 1073              	vSC:
 1074 0050 00       		.byte	0
 1075 0051 01       		.byte	1
 1076 0052 01       		.byte	1
 1077 0053 01       		.byte	1
 1078 0054 00       		.byte	0
 1079 0055 FF       		.byte	-1
 1080 0056 FF       		.byte	-1
 1081 0057 FF       		.byte	-1
 1082              		.global	tablero
 1083              		.bss
 1084              		.align	3
 1087              	tablero:
 1088 0000 00000000 		.space	64
 1088      00000000 
 1088      00000000 
 1088      00000000 
 1088      00000000 
 1089              		.global	fila
 1092              	fila:
 1093 0040 00       		.space	1
 1094              		.global	columna
 1097              	columna:
 1098 0041 00       		.space	1
 1099              		.global	ready
 1102              	ready:
 1103 0042 00       		.space	1
 1104 0043 00000000 		.text
 1104      00
 1105              		.align	2
 1106              		.global	init_table
 1108              	init_table:
 1109              	.LFB0:
   1:../reversi8_2018.c **** //Version Placa 0.1
   2:../reversi8_2018.c **** // Tamaño del tablero
   3:../reversi8_2018.c **** #include "led.h"
   4:../reversi8_2018.c **** enum { DIM=8 };
   5:../reversi8_2018.c **** enum {MODO=1}; //Seleccion de funcion patron volteo que se va a usar: 0=patron_volteo, 1=patron_vol
   6:../reversi8_2018.c **** // Valores que puede devolver la función patron_volteo())
   7:../reversi8_2018.c **** enum {
   8:../reversi8_2018.c **** 	NO_HAY_PATRON = 0,
   9:../reversi8_2018.c ****   PATRON_ENCONTRADO = 1
  10:../reversi8_2018.c **** };
  11:../reversi8_2018.c **** 
  12:../reversi8_2018.c **** // Estados de las casillas del tablero
  13:../reversi8_2018.c **** enum {
  14:../reversi8_2018.c **** CASILLA_VACIA = 0,
  15:../reversi8_2018.c **** FICHA_BLANCA = 1,
  16:../reversi8_2018.c **** FICHA_NEGRA = 2
  17:../reversi8_2018.c **** };
  18:../reversi8_2018.c **** 
  19:../reversi8_2018.c **** // candidatas: indica las posiciones a explorar
  20:../reversi8_2018.c **** // Se usa para no explorar todo el tablero innecesariamente
  21:../reversi8_2018.c **** // Sus posibles valores son NO, SI, CASILLA_OCUPADA
  22:../reversi8_2018.c **** const char  NO              = 0;
  23:../reversi8_2018.c **** const char  SI              = 1;
  24:../reversi8_2018.c **** const char  CASILLA_OCUPADA = 2;
  25:../reversi8_2018.c **** 
  26:../reversi8_2018.c **** /////////////////////////////////////////////////////////////////////////////
  27:../reversi8_2018.c **** // TABLAS AUXILIARES
  28:../reversi8_2018.c **** // declaramos las siguientes tablas como globales para que sean más fáciles visualizarlas en el sim
  29:../reversi8_2018.c **** // __attribute__ ((aligned (8))): specifies a minimum alignment for the variable or structure field
  30:../reversi8_2018.c **** 
  31:../reversi8_2018.c **** static const char __attribute__ ((aligned (8))) tabla_valor[DIM][DIM] =
  32:../reversi8_2018.c **** {
  33:../reversi8_2018.c ****     {8,2,7,3,3,7,2,8},
  34:../reversi8_2018.c ****     {2,1,4,4,4,4,1,2},
  35:../reversi8_2018.c ****     {7,4,6,5,5,6,4,7},
  36:../reversi8_2018.c ****     {3,4,5,0,0,5,4,3},
  37:../reversi8_2018.c ****     {3,4,5,0,0,5,4,3},
  38:../reversi8_2018.c ****     {7,4,6,5,5,6,4,7},
  39:../reversi8_2018.c ****     {2,1,4,4,4,4,1,2},
  40:../reversi8_2018.c ****     {8,2,7,3,3,7,2,8}
  41:../reversi8_2018.c **** };
  42:../reversi8_2018.c **** 
  43:../reversi8_2018.c **** 
  44:../reversi8_2018.c **** // Tabla de direcciones. Contiene los desplazamientos de las 8 direcciones posibles
  45:../reversi8_2018.c **** const char vSF[DIM] = {-1,-1, 0, 1, 1, 1, 0,-1};
  46:../reversi8_2018.c **** const char vSC[DIM] = { 0, 1, 1, 1, 0,-1,-1,-1};
  47:../reversi8_2018.c **** 
  48:../reversi8_2018.c **** //////////////////////////////////////////////////////////////////////////////////////
  49:../reversi8_2018.c **** // Variables globales que no deberían serlo
  50:../reversi8_2018.c **** // tablero, fila, columna y ready son varibles que se deberían definir como locales dentro de rever
  51:../reversi8_2018.c **** // Sin embargo, las hemos definido como globales para que sea más fácil visualizar el tablero y las
  52:../reversi8_2018.c **** //////////////////////////////////////////////////////////////////////////////////////
  53:../reversi8_2018.c **** ////////////////////////////////////////////////////////////////////
  54:../reversi8_2018.c **** // Tablero sin inicializar
  55:../reversi8_2018.c **** ////////////////////////////////////////////////////////////////////
  56:../reversi8_2018.c **** char __attribute__ ((aligned (8))) tablero[DIM][DIM] = {
  57:../reversi8_2018.c **** 	        {CASILLA_VACIA,CASILLA_VACIA,CASILLA_VACIA,CASILLA_VACIA,CASILLA_VACIA,CASILLA_VACIA,CASIL
  58:../reversi8_2018.c **** 	        {CASILLA_VACIA,CASILLA_VACIA,CASILLA_VACIA,CASILLA_VACIA,CASILLA_VACIA,CASILLA_VACIA,CASIL
  59:../reversi8_2018.c **** 	        {CASILLA_VACIA,CASILLA_VACIA,CASILLA_VACIA,CASILLA_VACIA,CASILLA_VACIA,CASILLA_VACIA,CASIL
  60:../reversi8_2018.c **** 	        {CASILLA_VACIA,CASILLA_VACIA,CASILLA_VACIA,CASILLA_VACIA,CASILLA_VACIA,CASILLA_VACIA,CASIL
  61:../reversi8_2018.c **** 	        {CASILLA_VACIA,CASILLA_VACIA,CASILLA_VACIA,CASILLA_VACIA,CASILLA_VACIA,CASILLA_VACIA,CASIL
  62:../reversi8_2018.c **** 	        {CASILLA_VACIA,CASILLA_VACIA,CASILLA_VACIA,CASILLA_VACIA,CASILLA_VACIA,CASILLA_VACIA,CASIL
  63:../reversi8_2018.c **** 	        {CASILLA_VACIA,CASILLA_VACIA,CASILLA_VACIA,CASILLA_VACIA,CASILLA_VACIA,CASILLA_VACIA,CASIL
  64:../reversi8_2018.c **** 	        {CASILLA_VACIA,CASILLA_VACIA,CASILLA_VACIA,CASILLA_VACIA,CASILLA_VACIA,CASILLA_VACIA,CASIL
  65:../reversi8_2018.c **** 	    };
  66:../reversi8_2018.c **** 
  67:../reversi8_2018.c ****   ////////////////////////////////////////////////////////////////////
  68:../reversi8_2018.c ****      // VARIABLES PARA INTERACCIONAR CON LA ENTRADA SALIDA
  69:../reversi8_2018.c ****      // Pregunta: ¿hay que hacer algo con ellas para que esto funcione bien?
  70:../reversi8_2018.c ****      // (por ejemplo añadir alguna palabra clave para garantizar que la sincronización a través de 
  71:../reversi8_2018.c ****   char fila=0, columna=0, ready = 0;
  72:../reversi8_2018.c **** 
  73:../reversi8_2018.c **** 
  74:../reversi8_2018.c **** 
  75:../reversi8_2018.c ****   extern int patron_volteo_arm_c(char tablero[][8], int *longitud,char f, char c, char SF, char SC,
  76:../reversi8_2018.c **** 
  77:../reversi8_2018.c **** ///////////////////////////////////////////////////////////////////////////////////////////////////
  78:../reversi8_2018.c **** // 0 indica CASILLA_VACIA, 1 indica FICHA_BLANCA y 2 indica FICHA_NEGRA
  79:../reversi8_2018.c **** // pone el tablero a cero y luego coloca las fichas centrales.
  80:../reversi8_2018.c **** void init_table(char tablero[][DIM], char candidatas[][DIM])
  81:../reversi8_2018.c **** {
 1110              		.loc 1 81 0
 1111              		.cfi_startproc
 1112              		@ Function supports interworking.
 1113              		@ args = 0, pretend = 0, frame = 16
 1114              		@ frame_needed = 1, uses_anonymous_args = 0
 1115 0000 0DC0A0E1 		mov	ip, sp
 1116              	.LCFI0:
 1117              		.cfi_def_cfa_register 12
 1118 0004 00D82DE9 		stmfd	sp!, {fp, ip, lr, pc}
 1119 0008 04B04CE2 		sub	fp, ip, #4
 1120              		.cfi_offset 14, -8
 1121              		.cfi_offset 13, -12
 1122              		.cfi_offset 11, -16
 1123              	.LCFI1:
 1124              		.cfi_def_cfa 11, 4
 1125 000c 10D04DE2 		sub	sp, sp, #16
 1126 0010 18000BE5 		str	r0, [fp, #-24]
 1127 0014 1C100BE5 		str	r1, [fp, #-28]
  82:../reversi8_2018.c ****     int i, j;
  83:../reversi8_2018.c **** 
  84:../reversi8_2018.c ****     for (i = 0; i < DIM; i++)
 1128              		.loc 1 84 0
 1129 0018 0030A0E3 		mov	r3, #0
 1130 001c 10300BE5 		str	r3, [fp, #-16]
 1131 0020 130000EA 		b	.L2
 1132              	.L5:
  85:../reversi8_2018.c ****     {
  86:../reversi8_2018.c ****         for (j = 0; j < DIM; j++)
 1133              		.loc 1 86 0
 1134 0024 0030A0E3 		mov	r3, #0
 1135 0028 14300BE5 		str	r3, [fp, #-20]
 1136 002c 0A0000EA 		b	.L3
 1137              	.L4:
  87:../reversi8_2018.c ****             tablero[i][j] = CASILLA_VACIA;
 1138              		.loc 1 87 0 discriminator 2
 1139 0030 10301BE5 		ldr	r3, [fp, #-16]
 1140 0034 8331A0E1 		mov	r3, r3, asl #3
 1141 0038 18201BE5 		ldr	r2, [fp, #-24]
 1142 003c 032082E0 		add	r2, r2, r3
 1143 0040 14301BE5 		ldr	r3, [fp, #-20]
 1144 0044 033082E0 		add	r3, r2, r3
 1145 0048 0020A0E3 		mov	r2, #0
 1146 004c 0020C3E5 		strb	r2, [r3, #0]
  86:../reversi8_2018.c ****         for (j = 0; j < DIM; j++)
 1147              		.loc 1 86 0 discriminator 2
 1148 0050 14301BE5 		ldr	r3, [fp, #-20]
 1149 0054 013083E2 		add	r3, r3, #1
 1150 0058 14300BE5 		str	r3, [fp, #-20]
 1151              	.L3:
  86:../reversi8_2018.c ****         for (j = 0; j < DIM; j++)
 1152              		.loc 1 86 0 is_stmt 0 discriminator 1
 1153 005c 14301BE5 		ldr	r3, [fp, #-20]
 1154 0060 070053E3 		cmp	r3, #7
 1155 0064 F1FFFFDA 		ble	.L4
  84:../reversi8_2018.c ****     for (i = 0; i < DIM; i++)
 1156              		.loc 1 84 0 is_stmt 1
 1157 0068 10301BE5 		ldr	r3, [fp, #-16]
 1158 006c 013083E2 		add	r3, r3, #1
 1159 0070 10300BE5 		str	r3, [fp, #-16]
 1160              	.L2:
  84:../reversi8_2018.c ****     for (i = 0; i < DIM; i++)
 1161              		.loc 1 84 0 is_stmt 0 discriminator 1
 1162 0074 10301BE5 		ldr	r3, [fp, #-16]
 1163 0078 070053E3 		cmp	r3, #7
 1164 007c E8FFFFDA 		ble	.L5
  88:../reversi8_2018.c ****     }
  89:../reversi8_2018.c **** #if 0
  90:../reversi8_2018.c ****     for (i = 3; i < 5; ++i) {
  91:../reversi8_2018.c **** 	for(j = 3; j < 5; ++j) {
  92:../reversi8_2018.c **** 	    tablero[i][j] = i == j ? FICHA_BLANCA : FICHA_NEGRA;
  93:../reversi8_2018.c **** 	}
  94:../reversi8_2018.c ****     }
  95:../reversi8_2018.c **** 
  96:../reversi8_2018.c ****     for (i = 2; i < 6; ++i) {
  97:../reversi8_2018.c **** 	for (j = 2; j < 6; ++j) {
  98:../reversi8_2018.c **** 	    if((i>=3) && (i < 5) && (j>=3) && (j<5)) {
  99:../reversi8_2018.c **** 		candidatas[i][j] = CASILLA_OCUPADA;
 100:../reversi8_2018.c **** 	    } else {
 101:../reversi8_2018.c **** 		candidatas[i][j] = SI; //CASILLA_LIBRE;
 102:../reversi8_2018.c **** 	    }
 103:../reversi8_2018.c **** 	}
 104:../reversi8_2018.c ****     }
 105:../reversi8_2018.c **** #endif
 106:../reversi8_2018.c ****     // arriba hay versión alternativa
 107:../reversi8_2018.c ****     tablero[3][3] = FICHA_BLANCA;
 1165              		.loc 1 107 0 is_stmt 1
 1166 0080 18301BE5 		ldr	r3, [fp, #-24]
 1167 0084 183083E2 		add	r3, r3, #24
 1168 0088 0120A0E3 		mov	r2, #1
 1169 008c 0320C3E5 		strb	r2, [r3, #3]
 108:../reversi8_2018.c ****     tablero[4][4] = FICHA_BLANCA;
 1170              		.loc 1 108 0
 1171 0090 18301BE5 		ldr	r3, [fp, #-24]
 1172 0094 203083E2 		add	r3, r3, #32
 1173 0098 0120A0E3 		mov	r2, #1
 1174 009c 0420C3E5 		strb	r2, [r3, #4]
 109:../reversi8_2018.c ****     tablero[3][4] = FICHA_NEGRA;
 1175              		.loc 1 109 0
 1176 00a0 18301BE5 		ldr	r3, [fp, #-24]
 1177 00a4 183083E2 		add	r3, r3, #24
 1178 00a8 0220A0E3 		mov	r2, #2
 1179 00ac 0420C3E5 		strb	r2, [r3, #4]
 110:../reversi8_2018.c ****     tablero[4][3] = FICHA_NEGRA;
 1180              		.loc 1 110 0
 1181 00b0 18301BE5 		ldr	r3, [fp, #-24]
 1182 00b4 203083E2 		add	r3, r3, #32
 1183 00b8 0220A0E3 		mov	r2, #2
 1184 00bc 0320C3E5 		strb	r2, [r3, #3]
 111:../reversi8_2018.c **** 
 112:../reversi8_2018.c ****     candidatas[3][3] = CASILLA_OCUPADA;
 1185              		.loc 1 112 0
 1186 00c0 1C301BE5 		ldr	r3, [fp, #-28]
 1187 00c4 183083E2 		add	r3, r3, #24
 1188 00c8 3C219FE5 		ldr	r2, .L6
 1189 00cc 0020D2E5 		ldrb	r2, [r2, #0]	@ zero_extendqisi2
 1190 00d0 0320C3E5 		strb	r2, [r3, #3]
 113:../reversi8_2018.c ****     candidatas[4][4] = CASILLA_OCUPADA;
 1191              		.loc 1 113 0
 1192 00d4 1C301BE5 		ldr	r3, [fp, #-28]
 1193 00d8 203083E2 		add	r3, r3, #32
 1194 00dc 28219FE5 		ldr	r2, .L6
 1195 00e0 0020D2E5 		ldrb	r2, [r2, #0]	@ zero_extendqisi2
 1196 00e4 0420C3E5 		strb	r2, [r3, #4]
 114:../reversi8_2018.c ****     candidatas[3][4] = CASILLA_OCUPADA;
 1197              		.loc 1 114 0
 1198 00e8 1C301BE5 		ldr	r3, [fp, #-28]
 1199 00ec 183083E2 		add	r3, r3, #24
 1200 00f0 14219FE5 		ldr	r2, .L6
 1201 00f4 0020D2E5 		ldrb	r2, [r2, #0]	@ zero_extendqisi2
 1202 00f8 0420C3E5 		strb	r2, [r3, #4]
 115:../reversi8_2018.c ****     candidatas[4][3] = CASILLA_OCUPADA;
 1203              		.loc 1 115 0
 1204 00fc 1C301BE5 		ldr	r3, [fp, #-28]
 1205 0100 203083E2 		add	r3, r3, #32
 1206 0104 00219FE5 		ldr	r2, .L6
 1207 0108 0020D2E5 		ldrb	r2, [r2, #0]	@ zero_extendqisi2
 1208 010c 0320C3E5 		strb	r2, [r3, #3]
 116:../reversi8_2018.c **** 
 117:../reversi8_2018.c ****     // casillas a explorar:
 118:../reversi8_2018.c ****     candidatas[2][2] = SI;
 1209              		.loc 1 118 0
 1210 0110 1C301BE5 		ldr	r3, [fp, #-28]
 1211 0114 103083E2 		add	r3, r3, #16
 1212 0118 F0209FE5 		ldr	r2, .L6+4
 1213 011c 0020D2E5 		ldrb	r2, [r2, #0]	@ zero_extendqisi2
 1214 0120 0220C3E5 		strb	r2, [r3, #2]
 119:../reversi8_2018.c ****     candidatas[2][3] = SI;
 1215              		.loc 1 119 0
 1216 0124 1C301BE5 		ldr	r3, [fp, #-28]
 1217 0128 103083E2 		add	r3, r3, #16
 1218 012c DC209FE5 		ldr	r2, .L6+4
 1219 0130 0020D2E5 		ldrb	r2, [r2, #0]	@ zero_extendqisi2
 1220 0134 0320C3E5 		strb	r2, [r3, #3]
 120:../reversi8_2018.c ****     candidatas[2][4] = SI;
 1221              		.loc 1 120 0
 1222 0138 1C301BE5 		ldr	r3, [fp, #-28]
 1223 013c 103083E2 		add	r3, r3, #16
 1224 0140 C8209FE5 		ldr	r2, .L6+4
 1225 0144 0020D2E5 		ldrb	r2, [r2, #0]	@ zero_extendqisi2
 1226 0148 0420C3E5 		strb	r2, [r3, #4]
 121:../reversi8_2018.c ****     candidatas[2][5] = SI;
 1227              		.loc 1 121 0
 1228 014c 1C301BE5 		ldr	r3, [fp, #-28]
 1229 0150 103083E2 		add	r3, r3, #16
 1230 0154 B4209FE5 		ldr	r2, .L6+4
 1231 0158 0020D2E5 		ldrb	r2, [r2, #0]	@ zero_extendqisi2
 1232 015c 0520C3E5 		strb	r2, [r3, #5]
 122:../reversi8_2018.c ****     candidatas[3][2] = SI;
 1233              		.loc 1 122 0
 1234 0160 1C301BE5 		ldr	r3, [fp, #-28]
 1235 0164 183083E2 		add	r3, r3, #24
 1236 0168 A0209FE5 		ldr	r2, .L6+4
 1237 016c 0020D2E5 		ldrb	r2, [r2, #0]	@ zero_extendqisi2
 1238 0170 0220C3E5 		strb	r2, [r3, #2]
 123:../reversi8_2018.c ****     candidatas[3][5] = SI;
 1239              		.loc 1 123 0
 1240 0174 1C301BE5 		ldr	r3, [fp, #-28]
 1241 0178 183083E2 		add	r3, r3, #24
 1242 017c 8C209FE5 		ldr	r2, .L6+4
 1243 0180 0020D2E5 		ldrb	r2, [r2, #0]	@ zero_extendqisi2
 1244 0184 0520C3E5 		strb	r2, [r3, #5]
 124:../reversi8_2018.c ****     candidatas[4][2] = SI;
 1245              		.loc 1 124 0
 1246 0188 1C301BE5 		ldr	r3, [fp, #-28]
 1247 018c 203083E2 		add	r3, r3, #32
 1248 0190 78209FE5 		ldr	r2, .L6+4
 1249 0194 0020D2E5 		ldrb	r2, [r2, #0]	@ zero_extendqisi2
 1250 0198 0220C3E5 		strb	r2, [r3, #2]
 125:../reversi8_2018.c ****     candidatas[4][5] = SI;
 1251              		.loc 1 125 0
 1252 019c 1C301BE5 		ldr	r3, [fp, #-28]
 1253 01a0 203083E2 		add	r3, r3, #32
 1254 01a4 64209FE5 		ldr	r2, .L6+4
 1255 01a8 0020D2E5 		ldrb	r2, [r2, #0]	@ zero_extendqisi2
 1256 01ac 0520C3E5 		strb	r2, [r3, #5]
 126:../reversi8_2018.c ****     candidatas[5][2] = SI;
 1257              		.loc 1 126 0
 1258 01b0 1C301BE5 		ldr	r3, [fp, #-28]
 1259 01b4 283083E2 		add	r3, r3, #40
 1260 01b8 50209FE5 		ldr	r2, .L6+4
 1261 01bc 0020D2E5 		ldrb	r2, [r2, #0]	@ zero_extendqisi2
 1262 01c0 0220C3E5 		strb	r2, [r3, #2]
 127:../reversi8_2018.c ****     candidatas[5][3] = SI;
 1263              		.loc 1 127 0
 1264 01c4 1C301BE5 		ldr	r3, [fp, #-28]
 1265 01c8 283083E2 		add	r3, r3, #40
 1266 01cc 3C209FE5 		ldr	r2, .L6+4
 1267 01d0 0020D2E5 		ldrb	r2, [r2, #0]	@ zero_extendqisi2
 1268 01d4 0320C3E5 		strb	r2, [r3, #3]
 128:../reversi8_2018.c ****     candidatas[5][4] = SI;
 1269              		.loc 1 128 0
 1270 01d8 1C301BE5 		ldr	r3, [fp, #-28]
 1271 01dc 283083E2 		add	r3, r3, #40
 1272 01e0 28209FE5 		ldr	r2, .L6+4
 1273 01e4 0020D2E5 		ldrb	r2, [r2, #0]	@ zero_extendqisi2
 1274 01e8 0420C3E5 		strb	r2, [r3, #4]
 129:../reversi8_2018.c ****     candidatas[5][5] = SI;
 1275              		.loc 1 129 0
 1276 01ec 1C301BE5 		ldr	r3, [fp, #-28]
 1277 01f0 283083E2 		add	r3, r3, #40
 1278 01f4 14209FE5 		ldr	r2, .L6+4
 1279 01f8 0020D2E5 		ldrb	r2, [r2, #0]	@ zero_extendqisi2
 1280 01fc 0520C3E5 		strb	r2, [r3, #5]
 130:../reversi8_2018.c **** }
 1281              		.loc 1 130 0
 1282 0200 0CD04BE2 		sub	sp, fp, #12
 1283 0204 00689DE8 		ldmfd	sp, {fp, sp, lr}
 1284 0208 1EFF2FE1 		bx	lr
 1285              	.L7:
 1286              		.align	2
 1287              	.L6:
 1288 020c 00000000 		.word	CASILLA_OCUPADA
 1289 0210 00000000 		.word	SI
 1290              		.cfi_endproc
 1291              	.LFE0:
 1293              		.align	2
 1294              		.global	esperar_mov
 1296              	esperar_mov:
 1297              	.LFB1:
 131:../reversi8_2018.c **** 
 132:../reversi8_2018.c **** ////////////////////////////////////////////////////////////////////////////////
 133:../reversi8_2018.c **** // Espera a que ready valga 1.
 134:../reversi8_2018.c **** // CUIDADO: si el compilador coloca esta variable en un registro, no funcionará.
 135:../reversi8_2018.c **** // Hay que definirla como "volatile" para forzar a que antes de cada uso la cargue de memoria
 136:../reversi8_2018.c **** 
 137:../reversi8_2018.c **** void esperar_mov(char *ready)
 138:../reversi8_2018.c **** {
 1298              		.loc 1 138 0
 1299              		.cfi_startproc
 1300              		@ Function supports interworking.
 1301              		@ args = 0, pretend = 0, frame = 8
 1302              		@ frame_needed = 1, uses_anonymous_args = 0
 1303 0214 0DC0A0E1 		mov	ip, sp
 1304              	.LCFI2:
 1305              		.cfi_def_cfa_register 12
 1306 0218 00D82DE9 		stmfd	sp!, {fp, ip, lr, pc}
 1307 021c 04B04CE2 		sub	fp, ip, #4
 1308              		.cfi_offset 14, -8
 1309              		.cfi_offset 13, -12
 1310              		.cfi_offset 11, -16
 1311              	.LCFI3:
 1312              		.cfi_def_cfa 11, 4
 1313 0220 08D04DE2 		sub	sp, sp, #8
 1314 0224 10000BE5 		str	r0, [fp, #-16]
 139:../reversi8_2018.c ****     while (*ready == 0) {};  // bucle de espera de respuestas hasta que el se modifique el valor de
 1315              		.loc 1 139 0
 1316 0228 0000A0E1 		mov	r0, r0	@ nop
 1317              	.L9:
 1318              		.loc 1 139 0 is_stmt 0 discriminator 1
 1319 022c 10301BE5 		ldr	r3, [fp, #-16]
 1320 0230 0030D3E5 		ldrb	r3, [r3, #0]	@ zero_extendqisi2
 1321 0234 000053E3 		cmp	r3, #0
 1322 0238 FBFFFF0A 		beq	.L9
 140:../reversi8_2018.c **** 
 141:../reversi8_2018.c ****     *ready = 0;  //una vez que pasemos el bucle volvemos a fijar ready a 0;
 1323              		.loc 1 141 0 is_stmt 1
 1324 023c 10301BE5 		ldr	r3, [fp, #-16]
 1325 0240 0020A0E3 		mov	r2, #0
 1326 0244 0020C3E5 		strb	r2, [r3, #0]
 142:../reversi8_2018.c **** }
 1327              		.loc 1 142 0
 1328 0248 0CD04BE2 		sub	sp, fp, #12
 1329 024c 00689DE8 		ldmfd	sp, {fp, sp, lr}
 1330 0250 1EFF2FE1 		bx	lr
 1331              		.cfi_endproc
 1332              	.LFE1:
 1334              		.align	2
 1335              		.global	ficha_valida
 1337              	ficha_valida:
 1338              	.LFB2:
 143:../reversi8_2018.c **** 
 144:../reversi8_2018.c **** ////////////////////////////////////////////////////////////////////////////////
 145:../reversi8_2018.c **** //++++++++++++++++++++++++++++++++++++++++++++++++++++++++++++++++++++++++++++++
 146:../reversi8_2018.c **** // IMPORTANTE: AL SUSTITUIR FICHA_VALIDA() Y PATRON_VOLTEO()
 147:../reversi8_2018.c **** // POR RUTINAS EN ENSAMBLADOR HAY QUE RESPETAR LA MODULARIDAD.
 148:../reversi8_2018.c **** // DEBEN SEGUIR SIENDO LLAMADAS A FUNCIONES Y DEBEN CUMPLIR CON EL ATPCS
 149:../reversi8_2018.c **** // (VER TRANSPARENCIAS Y MATERIAL DE PRACTICAS):
 150:../reversi8_2018.c **** //  - DEBEN PASAR LOS PARAMETROS POR LOS REGISTROS CORRESPONDIENTES
 151:../reversi8_2018.c **** //  - GUARDAR EN PILA SOLO LOS REGISTROS QUE TOCAN
 152:../reversi8_2018.c **** //  - CREAR UN MARCO DE PILA TAL Y COMO MUESTRAN LAS TRANSPARENCIAS
 153:../reversi8_2018.c **** //    DE LA ASIGNATURA (CON EL PC, FP, LR,....)
 154:../reversi8_2018.c **** //  - EN EL CASO DE LAS VARIABLES LOCALES, SOLO HAY QUE APILARLAS
 155:../reversi8_2018.c **** //    SI NO SE PUEDEN COLOCAR EN UN REGISTRO.
 156:../reversi8_2018.c **** //    SI SE COLOCAN EN UN REGISTRO NO HACE FALTA
 157:../reversi8_2018.c **** //    NI GUARDARLAS EN PILA NI RESERVAR UN ESPACIO EN LA PILA PARA ELLAS
 158:../reversi8_2018.c **** //++++++++++++++++++++++++++++++++++++++++++++++++++++++++++++++++++++++++++++++
 159:../reversi8_2018.c **** ////////////////////////////////////////////////////////////////////////////////
 160:../reversi8_2018.c **** // Devuelve el contenido de la posición indicadas por la fila y columna actual.
 161:../reversi8_2018.c **** // Además informa si la posición es válida y contiene alguna ficha.
 162:../reversi8_2018.c **** // Esto lo hace por referencia (en *posicion_valida)
 163:../reversi8_2018.c **** // Si devuelve un 0 no es válida o está vacia.
 164:../reversi8_2018.c **** char ficha_valida(char tablero[][DIM], char f, char c, int *posicion_valida)
 165:../reversi8_2018.c **** {
 1339              		.loc 1 165 0
 1340              		.cfi_startproc
 1341              		@ Function supports interworking.
 1342              		@ args = 0, pretend = 0, frame = 24
 1343              		@ frame_needed = 1, uses_anonymous_args = 0
 1344 0254 0DC0A0E1 		mov	ip, sp
 1345              	.LCFI4:
 1346              		.cfi_def_cfa_register 12
 1347 0258 00D82DE9 		stmfd	sp!, {fp, ip, lr, pc}
 1348 025c 04B04CE2 		sub	fp, ip, #4
 1349              		.cfi_offset 14, -8
 1350              		.cfi_offset 13, -12
 1351              		.cfi_offset 11, -16
 1352              	.LCFI5:
 1353              		.cfi_def_cfa 11, 4
 1354 0260 18D04DE2 		sub	sp, sp, #24
 1355 0264 18000BE5 		str	r0, [fp, #-24]
 1356 0268 20300BE5 		str	r3, [fp, #-32]
 1357 026c 0130A0E1 		mov	r3, r1
 1358 0270 19304BE5 		strb	r3, [fp, #-25]
 1359 0274 0230A0E1 		mov	r3, r2
 1360 0278 1A304BE5 		strb	r3, [fp, #-26]
 166:../reversi8_2018.c ****     char ficha;
 167:../reversi8_2018.c **** 
 168:../reversi8_2018.c ****     // ficha = tablero[f][c];
 169:../reversi8_2018.c ****     // no puede accederse a tablero[f][c]
 170:../reversi8_2018.c ****     // ya que algún índice puede ser negativo
 171:../reversi8_2018.c **** 
 172:../reversi8_2018.c ****     if ((f < DIM) && (f >= 0) && (c < DIM) && (c >= 0) && (tablero[f][c] != CASILLA_VACIA))
 1361              		.loc 1 172 0
 1362 027c 19305BE5 		ldrb	r3, [fp, #-25]	@ zero_extendqisi2
 1363 0280 070053E3 		cmp	r3, #7
 1364 0284 1500008A 		bhi	.L11
 1365              		.loc 1 172 0 is_stmt 0 discriminator 1
 1366 0288 1A305BE5 		ldrb	r3, [fp, #-26]	@ zero_extendqisi2
 1367 028c 070053E3 		cmp	r3, #7
 1368 0290 1200008A 		bhi	.L11
 1369 0294 19305BE5 		ldrb	r3, [fp, #-25]	@ zero_extendqisi2
 1370 0298 8331A0E1 		mov	r3, r3, asl #3
 1371 029c 18201BE5 		ldr	r2, [fp, #-24]
 1372 02a0 032082E0 		add	r2, r2, r3
 1373 02a4 1A305BE5 		ldrb	r3, [fp, #-26]	@ zero_extendqisi2
 1374 02a8 0330D2E7 		ldrb	r3, [r2, r3]	@ zero_extendqisi2
 1375 02ac 000053E3 		cmp	r3, #0
 1376 02b0 0A00000A 		beq	.L11
 173:../reversi8_2018.c ****     {
 174:../reversi8_2018.c ****         *posicion_valida = 1;
 1377              		.loc 1 174 0 is_stmt 1
 1378 02b4 20301BE5 		ldr	r3, [fp, #-32]
 1379 02b8 0120A0E3 		mov	r2, #1
 1380 02bc 002083E5 		str	r2, [r3, #0]
 175:../reversi8_2018.c ****         ficha = tablero[f][c];
 1381              		.loc 1 175 0
 1382 02c0 19305BE5 		ldrb	r3, [fp, #-25]	@ zero_extendqisi2
 1383 02c4 8331A0E1 		mov	r3, r3, asl #3
 1384 02c8 18201BE5 		ldr	r2, [fp, #-24]
 1385 02cc 032082E0 		add	r2, r2, r3
 1386 02d0 1A305BE5 		ldrb	r3, [fp, #-26]	@ zero_extendqisi2
 1387 02d4 0330D2E7 		ldrb	r3, [r2, r3]
 1388 02d8 0D304BE5 		strb	r3, [fp, #-13]
 1389 02dc 040000EA 		b	.L12
 1390              	.L11:
 176:../reversi8_2018.c ****     }
 177:../reversi8_2018.c ****     else
 178:../reversi8_2018.c ****     {
 179:../reversi8_2018.c ****         *posicion_valida = 0;
 1391              		.loc 1 179 0
 1392 02e0 20301BE5 		ldr	r3, [fp, #-32]
 1393 02e4 0020A0E3 		mov	r2, #0
 1394 02e8 002083E5 		str	r2, [r3, #0]
 180:../reversi8_2018.c ****         ficha = CASILLA_VACIA;
 1395              		.loc 1 180 0
 1396 02ec 0030A0E3 		mov	r3, #0
 1397 02f0 0D304BE5 		strb	r3, [fp, #-13]
 1398              	.L12:
 181:../reversi8_2018.c ****     }
 182:../reversi8_2018.c ****     return ficha;
 1399              		.loc 1 182 0
 1400 02f4 0D305BE5 		ldrb	r3, [fp, #-13]	@ zero_extendqisi2
 183:../reversi8_2018.c **** }
 1401              		.loc 1 183 0
 1402 02f8 0300A0E1 		mov	r0, r3
 1403 02fc 0CD04BE2 		sub	sp, fp, #12
 1404 0300 00689DE8 		ldmfd	sp, {fp, sp, lr}
 1405 0304 1EFF2FE1 		bx	lr
 1406              		.cfi_endproc
 1407              	.LFE2:
 1409              		.align	2
 1410              		.global	patron_volteo
 1412              	patron_volteo:
 1413              	.LFB3:
 184:../reversi8_2018.c **** 
 185:../reversi8_2018.c **** 
 186:../reversi8_2018.c **** ////////////////////////////////////////////////////////////////////////////////
 187:../reversi8_2018.c **** // La función patrón volteo es una función recursiva que busca el patrón de volteo
 188:../reversi8_2018.c **** // (n fichas del rival seguidas de una ficha del jugador actual) en una dirección determinada
 189:../reversi8_2018.c **** // SF y SC son las cantidades a sumar para movernos en la dirección que toque
 190:../reversi8_2018.c **** // color indica el color de la pieza que se acaba de colocar
 191:../reversi8_2018.c **** // la función devuelve PATRON_ENCONTRADO (1) si encuentra patrón y NO_HAY_PATRON (0) en caso contra
 192:../reversi8_2018.c **** // FA y CA son la fila y columna a analizar
 193:../reversi8_2018.c **** // longitud es un parámetro por referencia. Sirve para saber la longitud del patrón que se está ana
 194:../reversi8_2018.c **** int patron_volteo(char tablero[][DIM], int *longitud, char FA, char CA, char SF, char SC, char colo
 195:../reversi8_2018.c **** {
 1414              		.loc 1 195 0
 1415              		.cfi_startproc
 1416              		@ Function supports interworking.
 1417              		@ args = 12, pretend = 0, frame = 32
 1418              		@ frame_needed = 1, uses_anonymous_args = 0
 1419 0308 0DC0A0E1 		mov	ip, sp
 1420              	.LCFI6:
 1421              		.cfi_def_cfa_register 12
 1422 030c 00D82DE9 		stmfd	sp!, {fp, ip, lr, pc}
 1423 0310 04B04CE2 		sub	fp, ip, #4
 1424              		.cfi_offset 14, -8
 1425              		.cfi_offset 13, -12
 1426              		.cfi_offset 11, -16
 1427              	.LCFI7:
 1428              		.cfi_def_cfa 11, 4
 1429 0314 30D04DE2 		sub	sp, sp, #48
 1430 0318 20000BE5 		str	r0, [fp, #-32]
 1431 031c 24100BE5 		str	r1, [fp, #-36]
 1432 0320 25204BE5 		strb	r2, [fp, #-37]
 1433 0324 26304BE5 		strb	r3, [fp, #-38]
 196:../reversi8_2018.c ****     int posicion_valida; // indica si la posición es valida y contiene una ficha de algún jugador
 197:../reversi8_2018.c ****     int patron; //indica si se ha encontrado un patrón o no
 198:../reversi8_2018.c ****     char casilla;   // casilla es la casilla que se lee del tablero
 199:../reversi8_2018.c ****     FA = FA + SF;
 1434              		.loc 1 199 0
 1435 0328 25205BE5 		ldrb	r2, [fp, #-37]
 1436 032c 0430DBE5 		ldrb	r3, [fp, #4]
 1437 0330 033082E0 		add	r3, r2, r3
 1438 0334 25304BE5 		strb	r3, [fp, #-37]
 200:../reversi8_2018.c ****     CA = CA + SC;
 1439              		.loc 1 200 0
 1440 0338 26205BE5 		ldrb	r2, [fp, #-38]
 1441 033c 0830DBE5 		ldrb	r3, [fp, #8]
 1442 0340 033082E0 		add	r3, r2, r3
 1443 0344 26304BE5 		strb	r3, [fp, #-38]
 201:../reversi8_2018.c ****     casilla = ficha_valida(tablero, FA, CA, &posicion_valida);
 1444              		.loc 1 201 0
 1445 0348 25105BE5 		ldrb	r1, [fp, #-37]	@ zero_extendqisi2
 1446 034c 26205BE5 		ldrb	r2, [fp, #-38]	@ zero_extendqisi2
 1447 0350 18304BE2 		sub	r3, fp, #24
 1448 0354 20001BE5 		ldr	r0, [fp, #-32]
 1449 0358 FEFFFFEB 		bl	ficha_valida
 1450 035c 0030A0E1 		mov	r3, r0
 1451 0360 0D304BE5 		strb	r3, [fp, #-13]
 202:../reversi8_2018.c ****     // mientras la casilla está en el tablero, no está vacía,
 203:../reversi8_2018.c ****     // y es del color rival seguimos buscando el patron de volteo
 204:../reversi8_2018.c ****     if ((posicion_valida == 1) && (casilla != color))
 1452              		.loc 1 204 0
 1453 0364 18301BE5 		ldr	r3, [fp, #-24]
 1454 0368 010053E3 		cmp	r3, #1
 1455 036c 1600001A 		bne	.L14
 1456              		.loc 1 204 0 is_stmt 0 discriminator 1
 1457 0370 0D205BE5 		ldrb	r2, [fp, #-13]	@ zero_extendqisi2
 1458 0374 0C30DBE5 		ldrb	r3, [fp, #12]	@ zero_extendqisi2
 1459 0378 030052E1 		cmp	r2, r3
 1460 037c 1200000A 		beq	.L14
 205:../reversi8_2018.c ****     {
 206:../reversi8_2018.c ****         *longitud = *longitud + 1;
 1461              		.loc 1 206 0 is_stmt 1
 1462 0380 24301BE5 		ldr	r3, [fp, #-36]
 1463 0384 003093E5 		ldr	r3, [r3, #0]
 1464 0388 012083E2 		add	r2, r3, #1
 1465 038c 24301BE5 		ldr	r3, [fp, #-36]
 1466 0390 002083E5 		str	r2, [r3, #0]
 207:../reversi8_2018.c ****         patron = patron_volteo(tablero, longitud, FA, CA, SF, SC, color);
 1467              		.loc 1 207 0
 1468 0394 25205BE5 		ldrb	r2, [fp, #-37]	@ zero_extendqisi2
 1469 0398 26305BE5 		ldrb	r3, [fp, #-38]	@ zero_extendqisi2
 1470 039c 0410DBE5 		ldrb	r1, [fp, #4]	@ zero_extendqisi2
 1471 03a0 00108DE5 		str	r1, [sp, #0]
 1472 03a4 0810DBE5 		ldrb	r1, [fp, #8]	@ zero_extendqisi2
 1473 03a8 04108DE5 		str	r1, [sp, #4]
 1474 03ac 0C10DBE5 		ldrb	r1, [fp, #12]	@ zero_extendqisi2
 1475 03b0 08108DE5 		str	r1, [sp, #8]
 1476 03b4 20001BE5 		ldr	r0, [fp, #-32]
 1477 03b8 24101BE5 		ldr	r1, [fp, #-36]
 1478 03bc FEFFFFEB 		bl	patron_volteo
 1479 03c0 14000BE5 		str	r0, [fp, #-20]
 208:../reversi8_2018.c ****         //printf("longitud: %d \n", *longitud);
 209:../reversi8_2018.c ****         //printf("fila: %d; columna: %d \n", FA, CA);
 210:../reversi8_2018.c ****         return patron;
 1480              		.loc 1 210 0
 1481 03c4 14301BE5 		ldr	r3, [fp, #-20]
 1482 03c8 0F0000EA 		b	.L15
 1483              	.L14:
 211:../reversi8_2018.c ****     }
 212:../reversi8_2018.c ****     // si la ultima posición era válida y la ficha es del jugador actual,
 213:../reversi8_2018.c ****     // entonces hemos encontrado el patrón
 214:../reversi8_2018.c ****     else if ((posicion_valida == 1) && (casilla == color))
 1484              		.loc 1 214 0
 1485 03cc 18301BE5 		ldr	r3, [fp, #-24]
 1486 03d0 010053E3 		cmp	r3, #1
 1487 03d4 0B00001A 		bne	.L16
 1488              		.loc 1 214 0 is_stmt 0 discriminator 1
 1489 03d8 0D205BE5 		ldrb	r2, [fp, #-13]	@ zero_extendqisi2
 1490 03dc 0C30DBE5 		ldrb	r3, [fp, #12]	@ zero_extendqisi2
 1491 03e0 030052E1 		cmp	r2, r3
 1492 03e4 0700001A 		bne	.L16
 215:../reversi8_2018.c ****     {
 216:../reversi8_2018.c ****         if (*longitud > 0) // longitud indica cuantas fichas hay que voltear
 1493              		.loc 1 216 0 is_stmt 1
 1494 03e8 24301BE5 		ldr	r3, [fp, #-36]
 1495 03ec 003093E5 		ldr	r3, [r3, #0]
 1496 03f0 000053E3 		cmp	r3, #0
 1497 03f4 010000DA 		ble	.L17
 217:../reversi8_2018.c ****             {
 218:../reversi8_2018.c ****             return PATRON_ENCONTRADO; // si hay que voltear una ficha o más hemos encontrado el pat
 1498              		.loc 1 218 0
 1499 03f8 0130A0E3 		mov	r3, #1
 1500 03fc 020000EA 		b	.L15
 1501              	.L17:
 219:../reversi8_2018.c ****             //printf("PATRON_ENCONTRADO \n");
 220:../reversi8_2018.c ****             }
 221:../reversi8_2018.c ****         else {
 222:../reversi8_2018.c ****             return NO_HAY_PATRON; // si no hay que voltear no hay patrón
 1502              		.loc 1 222 0
 1503 0400 0030A0E3 		mov	r3, #0
 1504 0404 000000EA 		b	.L15
 1505              	.L16:
 223:../reversi8_2018.c ****             //printf("NO_HAY_PATRON \n");
 224:../reversi8_2018.c ****             }
 225:../reversi8_2018.c ****     }
 226:../reversi8_2018.c ****     // en caso contrario es que no hay patrón
 227:../reversi8_2018.c ****     else
 228:../reversi8_2018.c ****     {
 229:../reversi8_2018.c ****         return NO_HAY_PATRON;
 1506              		.loc 1 229 0
 1507 0408 0030A0E3 		mov	r3, #0
 1508              	.L15:
 230:../reversi8_2018.c ****         //printf("NO_HAY_PATRON \n");
 231:../reversi8_2018.c ****     }
 232:../reversi8_2018.c **** }
 1509              		.loc 1 232 0
 1510 040c 0300A0E1 		mov	r0, r3
 1511 0410 0CD04BE2 		sub	sp, fp, #12
 1512 0414 00689DE8 		ldmfd	sp, {fp, sp, lr}
 1513 0418 1EFF2FE1 		bx	lr
 1514              		.cfi_endproc
 1515              	.LFE3:
 1517              		.align	2
 1518              		.global	patron_volteo_test
 1520              	patron_volteo_test:
 1521              	.LFB4:
 233:../reversi8_2018.c **** 
 234:../reversi8_2018.c **** //Funcion patron_volteo_test para comparar resultados entre las distintas implementaciones de patro
 235:../reversi8_2018.c **** int patron_volteo_test(char tablero[][DIM], int *longitud, char FA, char CA, char SF, char SC, char
 236:../reversi8_2018.c **** {
 1522              		.loc 1 236 0
 1523              		.cfi_startproc
 1524              		@ Function supports interworking.
 1525              		@ args = 12, pretend = 0, frame = 32
 1526              		@ frame_needed = 1, uses_anonymous_args = 0
 1527 041c 0DC0A0E1 		mov	ip, sp
 1528              	.LCFI8:
 1529              		.cfi_def_cfa_register 12
 1530 0420 00D82DE9 		stmfd	sp!, {fp, ip, lr, pc}
 1531 0424 04B04CE2 		sub	fp, ip, #4
 1532              		.cfi_offset 14, -8
 1533              		.cfi_offset 13, -12
 1534              		.cfi_offset 11, -16
 1535              	.LCFI9:
 1536              		.cfi_def_cfa 11, 4
 1537 0428 30D04DE2 		sub	sp, sp, #48
 1538 042c 20000BE5 		str	r0, [fp, #-32]
 1539 0430 24100BE5 		str	r1, [fp, #-36]
 1540 0434 25204BE5 		strb	r2, [fp, #-37]
 1541 0438 26304BE5 		strb	r3, [fp, #-38]
 237:../reversi8_2018.c **** 	unsigned int timer2_c=0;
 1542              		.loc 1 237 0
 1543 043c 0030A0E3 		mov	r3, #0
 1544 0440 10300BE5 		str	r3, [fp, #-16]
 238:../reversi8_2018.c **** 	unsigned int timer2_arm_c=0;
 1545              		.loc 1 238 0
 1546 0444 0030A0E3 		mov	r3, #0
 1547 0448 14300BE5 		str	r3, [fp, #-20]
 239:../reversi8_2018.c **** 	timer2_empezar();
 1548              		.loc 1 239 0
 1549 044c FEFFFFEB 		bl	timer2_empezar
 240:../reversi8_2018.c **** 	int resultado_c=patron_volteo(tablero,longitud,FA,CA,SF,SC,color);
 1550              		.loc 1 240 0
 1551 0450 25205BE5 		ldrb	r2, [fp, #-37]	@ zero_extendqisi2
 1552 0454 26305BE5 		ldrb	r3, [fp, #-38]	@ zero_extendqisi2
 1553 0458 0410DBE5 		ldrb	r1, [fp, #4]	@ zero_extendqisi2
 1554 045c 00108DE5 		str	r1, [sp, #0]
 1555 0460 0810DBE5 		ldrb	r1, [fp, #8]	@ zero_extendqisi2
 1556 0464 04108DE5 		str	r1, [sp, #4]
 1557 0468 0C10DBE5 		ldrb	r1, [fp, #12]	@ zero_extendqisi2
 1558 046c 08108DE5 		str	r1, [sp, #8]
 1559 0470 20001BE5 		ldr	r0, [fp, #-32]
 1560 0474 24101BE5 		ldr	r1, [fp, #-36]
 1561 0478 FEFFFFEB 		bl	patron_volteo
 1562 047c 18000BE5 		str	r0, [fp, #-24]
 241:../reversi8_2018.c **** 	timer2_c=timer2_parar();
 1563              		.loc 1 241 0
 1564 0480 FEFFFFEB 		bl	timer2_parar
 1565 0484 0030A0E1 		mov	r3, r0
 1566 0488 10300BE5 		str	r3, [fp, #-16]
 242:../reversi8_2018.c **** 
 243:../reversi8_2018.c **** 	timer2_empezar();
 1567              		.loc 1 243 0
 1568 048c FEFFFFEB 		bl	timer2_empezar
 244:../reversi8_2018.c **** 	int resultado_arm_c=patron_volteo_arm_c(tablero,longitud,FA,CA,SF,SC,color);
 1569              		.loc 1 244 0
 1570 0490 25205BE5 		ldrb	r2, [fp, #-37]	@ zero_extendqisi2
 1571 0494 26305BE5 		ldrb	r3, [fp, #-38]	@ zero_extendqisi2
 1572 0498 0410DBE5 		ldrb	r1, [fp, #4]	@ zero_extendqisi2
 1573 049c 00108DE5 		str	r1, [sp, #0]
 1574 04a0 0810DBE5 		ldrb	r1, [fp, #8]	@ zero_extendqisi2
 1575 04a4 04108DE5 		str	r1, [sp, #4]
 1576 04a8 0C10DBE5 		ldrb	r1, [fp, #12]	@ zero_extendqisi2
 1577 04ac 08108DE5 		str	r1, [sp, #8]
 1578 04b0 20001BE5 		ldr	r0, [fp, #-32]
 1579 04b4 24101BE5 		ldr	r1, [fp, #-36]
 1580 04b8 FEFFFFEB 		bl	patron_volteo_arm_c
 1581 04bc 1C000BE5 		str	r0, [fp, #-28]
 245:../reversi8_2018.c **** 	timer2_arm_c=timer2_parar();
 1582              		.loc 1 245 0
 1583 04c0 FEFFFFEB 		bl	timer2_parar
 1584 04c4 0030A0E1 		mov	r3, r0
 1585 04c8 14300BE5 		str	r3, [fp, #-20]
 1586              	.L19:
 246:../reversi8_2018.c **** 	while(resultado_c != resultado_arm_c){
 1587              		.loc 1 246 0 discriminator 1
 1588 04cc 18201BE5 		ldr	r2, [fp, #-24]
 1589 04d0 1C301BE5 		ldr	r3, [fp, #-28]
 1590 04d4 030052E1 		cmp	r2, r3
 1591 04d8 FBFFFF1A 		bne	.L19
 247:../reversi8_2018.c **** 
 248:../reversi8_2018.c **** 	}
 249:../reversi8_2018.c **** }
 1592              		.loc 1 249 0
 1593 04dc 0300A0E1 		mov	r0, r3
 1594 04e0 0CD04BE2 		sub	sp, fp, #12
 1595 04e4 00689DE8 		ldmfd	sp, {fp, sp, lr}
 1596 04e8 1EFF2FE1 		bx	lr
 1597              		.cfi_endproc
 1598              	.LFE4:
 1600              		.align	2
 1601              		.global	voltear
 1603              	voltear:
 1604              	.LFB5:
 250:../reversi8_2018.c **** 
 251:../reversi8_2018.c **** ////////////////////////////////////////////////////////////////////////////////
 252:../reversi8_2018.c **** // voltea n fichas en la dirección que toque
 253:../reversi8_2018.c **** // SF y SC son las cantidades a sumar para movernos en la dirección que toque
 254:../reversi8_2018.c **** // color indica el color de la pieza que se acaba de colocar
 255:../reversi8_2018.c **** // FA y CA son la fila y columna a analizar
 256:../reversi8_2018.c **** void voltear(char tablero[][DIM], char FA, char CA, char SF, char SC, int n, char color)
 257:../reversi8_2018.c **** {
 1605              		.loc 1 257 0
 1606              		.cfi_startproc
 1607              		@ Function supports interworking.
 1608              		@ args = 12, pretend = 0, frame = 16
 1609              		@ frame_needed = 1, uses_anonymous_args = 0
 1610 04ec 0DC0A0E1 		mov	ip, sp
 1611              	.LCFI10:
 1612              		.cfi_def_cfa_register 12
 1613 04f0 00D82DE9 		stmfd	sp!, {fp, ip, lr, pc}
 1614 04f4 04B04CE2 		sub	fp, ip, #4
 1615              		.cfi_offset 14, -8
 1616              		.cfi_offset 13, -12
 1617              		.cfi_offset 11, -16
 1618              	.LCFI11:
 1619              		.cfi_def_cfa 11, 4
 1620 04f8 10D04DE2 		sub	sp, sp, #16
 1621 04fc 18000BE5 		str	r0, [fp, #-24]
 1622 0500 19104BE5 		strb	r1, [fp, #-25]
 1623 0504 1A204BE5 		strb	r2, [fp, #-26]
 1624 0508 1B304BE5 		strb	r3, [fp, #-27]
 258:../reversi8_2018.c ****     int i;
 259:../reversi8_2018.c **** 
 260:../reversi8_2018.c ****     for (i = 0; i < n; i++)
 1625              		.loc 1 260 0
 1626 050c 0030A0E3 		mov	r3, #0
 1627 0510 10300BE5 		str	r3, [fp, #-16]
 1628 0514 110000EA 		b	.L21
 1629              	.L22:
 261:../reversi8_2018.c ****     {
 262:../reversi8_2018.c ****         FA = FA + SF;
 1630              		.loc 1 262 0 discriminator 2
 1631 0518 19205BE5 		ldrb	r2, [fp, #-25]
 1632 051c 1B305BE5 		ldrb	r3, [fp, #-27]
 1633 0520 033082E0 		add	r3, r2, r3
 1634 0524 19304BE5 		strb	r3, [fp, #-25]
 263:../reversi8_2018.c ****         CA = CA + SC;
 1635              		.loc 1 263 0 discriminator 2
 1636 0528 1A205BE5 		ldrb	r2, [fp, #-26]
 1637 052c 0430DBE5 		ldrb	r3, [fp, #4]
 1638 0530 033082E0 		add	r3, r2, r3
 1639 0534 1A304BE5 		strb	r3, [fp, #-26]
 264:../reversi8_2018.c ****         tablero[FA][CA] = color;
 1640              		.loc 1 264 0 discriminator 2
 1641 0538 19305BE5 		ldrb	r3, [fp, #-25]	@ zero_extendqisi2
 1642 053c 8331A0E1 		mov	r3, r3, asl #3
 1643 0540 18201BE5 		ldr	r2, [fp, #-24]
 1644 0544 032082E0 		add	r2, r2, r3
 1645 0548 1A305BE5 		ldrb	r3, [fp, #-26]	@ zero_extendqisi2
 1646 054c 0C10DBE5 		ldrb	r1, [fp, #12]
 1647 0550 0310C2E7 		strb	r1, [r2, r3]
 260:../reversi8_2018.c ****     for (i = 0; i < n; i++)
 1648              		.loc 1 260 0 discriminator 2
 1649 0554 10301BE5 		ldr	r3, [fp, #-16]
 1650 0558 013083E2 		add	r3, r3, #1
 1651 055c 10300BE5 		str	r3, [fp, #-16]
 1652              	.L21:
 260:../reversi8_2018.c ****     for (i = 0; i < n; i++)
 1653              		.loc 1 260 0 is_stmt 0 discriminator 1
 1654 0560 10201BE5 		ldr	r2, [fp, #-16]
 1655 0564 08309BE5 		ldr	r3, [fp, #8]
 1656 0568 030052E1 		cmp	r2, r3
 1657 056c E9FFFFBA 		blt	.L22
 265:../reversi8_2018.c ****     }
 266:../reversi8_2018.c **** }
 1658              		.loc 1 266 0 is_stmt 1
 1659 0570 0CD04BE2 		sub	sp, fp, #12
 1660 0574 00689DE8 		ldmfd	sp, {fp, sp, lr}
 1661 0578 1EFF2FE1 		bx	lr
 1662              		.cfi_endproc
 1663              	.LFE5:
 1665              		.align	2
 1666              		.global	actualizar_tablero
 1668              	actualizar_tablero:
 1669              	.LFB6:
 267:../reversi8_2018.c **** ////////////////////////////////////////////////////////////////////////////////
 268:../reversi8_2018.c **** // comprueba si hay que actualizar alguna ficha
 269:../reversi8_2018.c **** // no comprueba que el movimiento realizado sea válido
 270:../reversi8_2018.c **** // f y c son la fila y columna a analizar
 271:../reversi8_2018.c **** // char vSF[DIM] = {-1,-1, 0, 1, 1, 1, 0,-1};
 272:../reversi8_2018.c **** // char vSC[DIM] = { 0, 1, 1, 1, 0,-1,-1,-1};
 273:../reversi8_2018.c **** int actualizar_tablero(char tablero[][DIM], char f, char c, char color)
 274:../reversi8_2018.c **** {
 1670              		.loc 1 274 0
 1671              		.cfi_startproc
 1672              		@ Function supports interworking.
 1673              		@ args = 0, pretend = 0, frame = 24
 1674              		@ frame_needed = 1, uses_anonymous_args = 0
 1675 057c 0DC0A0E1 		mov	ip, sp
 1676              	.LCFI12:
 1677              		.cfi_def_cfa_register 12
 1678 0580 00D82DE9 		stmfd	sp!, {fp, ip, lr, pc}
 1679 0584 04B04CE2 		sub	fp, ip, #4
 1680              		.cfi_offset 14, -8
 1681              		.cfi_offset 13, -12
 1682              		.cfi_offset 11, -16
 1683              	.LCFI13:
 1684              		.cfi_def_cfa 11, 4
 1685 0588 28D04DE2 		sub	sp, sp, #40
 1686 058c 20000BE5 		str	r0, [fp, #-32]
 1687 0590 21104BE5 		strb	r1, [fp, #-33]
 1688 0594 22204BE5 		strb	r2, [fp, #-34]
 1689 0598 23304BE5 		strb	r3, [fp, #-35]
 275:../reversi8_2018.c ****     char SF, SC; // cantidades a sumar para movernos en la dirección que toque
 276:../reversi8_2018.c ****     int i, flip, patron;
 277:../reversi8_2018.c **** 
 278:../reversi8_2018.c ****     for (i = 0; i < DIM; i++) // 0 es Norte, 1 NE, 2 E ...
 1690              		.loc 1 278 0
 1691 059c 0030A0E3 		mov	r3, #0
 1692 05a0 10300BE5 		str	r3, [fp, #-16]
 1693 05a4 280000EA 		b	.L24
 1694              	.L26:
 279:../reversi8_2018.c ****     {
 280:../reversi8_2018.c ****         SF = vSF[i];
 1695              		.loc 1 280 0
 1696 05a8 BC209FE5 		ldr	r2, .L27
 1697 05ac 10301BE5 		ldr	r3, [fp, #-16]
 1698 05b0 033082E0 		add	r3, r2, r3
 1699 05b4 0030D3E5 		ldrb	r3, [r3, #0]
 1700 05b8 11304BE5 		strb	r3, [fp, #-17]
 281:../reversi8_2018.c ****         SC = vSC[i];
 1701              		.loc 1 281 0
 1702 05bc AC209FE5 		ldr	r2, .L27+4
 1703 05c0 10301BE5 		ldr	r3, [fp, #-16]
 1704 05c4 033082E0 		add	r3, r2, r3
 1705 05c8 0030D3E5 		ldrb	r3, [r3, #0]
 1706 05cc 12304BE5 		strb	r3, [fp, #-18]
 282:../reversi8_2018.c ****         // flip: numero de fichas a voltear
 283:../reversi8_2018.c ****         flip = 0;
 1707              		.loc 1 283 0
 1708 05d0 0030A0E3 		mov	r3, #0
 1709 05d4 1C300BE5 		str	r3, [fp, #-28]
 284:../reversi8_2018.c ****         switch (MODO) {
 285:../reversi8_2018.c ****         case 1:
 286:../reversi8_2018.c ****         	patron = patron_volteo_arm_c(tablero, &flip, f, c, SF, SC, color);
 1710              		.loc 1 286 0
 1711 05d8 1C104BE2 		sub	r1, fp, #28
 1712 05dc 21205BE5 		ldrb	r2, [fp, #-33]	@ zero_extendqisi2
 1713 05e0 22305BE5 		ldrb	r3, [fp, #-34]	@ zero_extendqisi2
 1714 05e4 11005BE5 		ldrb	r0, [fp, #-17]	@ zero_extendqisi2
 1715 05e8 00008DE5 		str	r0, [sp, #0]
 1716 05ec 12005BE5 		ldrb	r0, [fp, #-18]	@ zero_extendqisi2
 1717 05f0 04008DE5 		str	r0, [sp, #4]
 1718 05f4 23005BE5 		ldrb	r0, [fp, #-35]	@ zero_extendqisi2
 1719 05f8 08008DE5 		str	r0, [sp, #8]
 1720 05fc 20001BE5 		ldr	r0, [fp, #-32]
 1721 0600 FEFFFFEB 		bl	patron_volteo_arm_c
 1722 0604 18000BE5 		str	r0, [fp, #-24]
 287:../reversi8_2018.c ****         	break;
 288:../reversi8_2018.c ****         default:
 289:../reversi8_2018.c ****         	patron = patron_volteo(tablero, &flip, f, c, SF, SC, color);
 290:../reversi8_2018.c ****         	break;
 291:../reversi8_2018.c ****         }
 292:../reversi8_2018.c ****         //printf("Flip: %d \n", flip);
 293:../reversi8_2018.c ****         if (patron == PATRON_ENCONTRADO )
 1723              		.loc 1 293 0
 1724 0608 18301BE5 		ldr	r3, [fp, #-24]
 1725 060c 010053E3 		cmp	r3, #1
 1726 0610 0A00001A 		bne	.L25
 294:../reversi8_2018.c ****         {
 295:../reversi8_2018.c ****             voltear(tablero, f, c, SF, SC, flip, color);
 1727              		.loc 1 295 0
 1728 0614 1C001BE5 		ldr	r0, [fp, #-28]
 1729 0618 21105BE5 		ldrb	r1, [fp, #-33]	@ zero_extendqisi2
 1730 061c 22205BE5 		ldrb	r2, [fp, #-34]	@ zero_extendqisi2
 1731 0620 11305BE5 		ldrb	r3, [fp, #-17]	@ zero_extendqisi2
 1732 0624 12C05BE5 		ldrb	ip, [fp, #-18]	@ zero_extendqisi2
 1733 0628 00C08DE5 		str	ip, [sp, #0]
 1734 062c 04008DE5 		str	r0, [sp, #4]
 1735 0630 23005BE5 		ldrb	r0, [fp, #-35]	@ zero_extendqisi2
 1736 0634 08008DE5 		str	r0, [sp, #8]
 1737 0638 20001BE5 		ldr	r0, [fp, #-32]
 1738 063c FEFFFFEB 		bl	voltear
 1739              	.L25:
 278:../reversi8_2018.c ****     for (i = 0; i < DIM; i++) // 0 es Norte, 1 NE, 2 E ...
 1740              		.loc 1 278 0
 1741 0640 10301BE5 		ldr	r3, [fp, #-16]
 1742 0644 013083E2 		add	r3, r3, #1
 1743 0648 10300BE5 		str	r3, [fp, #-16]
 1744              	.L24:
 278:../reversi8_2018.c ****     for (i = 0; i < DIM; i++) // 0 es Norte, 1 NE, 2 E ...
 1745              		.loc 1 278 0 is_stmt 0 discriminator 1
 1746 064c 10301BE5 		ldr	r3, [fp, #-16]
 1747 0650 070053E3 		cmp	r3, #7
 1748 0654 D3FFFFDA 		ble	.L26
 296:../reversi8_2018.c ****         }
 297:../reversi8_2018.c ****     }
 298:../reversi8_2018.c ****     return 0;
 1749              		.loc 1 298 0 is_stmt 1
 1750 0658 0030A0E3 		mov	r3, #0
 299:../reversi8_2018.c **** }
 1751              		.loc 1 299 0
 1752 065c 0300A0E1 		mov	r0, r3
 1753 0660 0CD04BE2 		sub	sp, fp, #12
 1754 0664 00689DE8 		ldmfd	sp, {fp, sp, lr}
 1755 0668 1EFF2FE1 		bx	lr
 1756              	.L28:
 1757              		.align	2
 1758              	.L27:
 1759 066c 00000000 		.word	vSF
 1760 0670 00000000 		.word	vSC
 1761              		.cfi_endproc
 1762              	.LFE6:
 1764              		.align	2
 1765              		.global	elegir_mov
 1767              	elegir_mov:
 1768              	.LFB7:
 300:../reversi8_2018.c **** 
 301:../reversi8_2018.c **** /////////////////////////////////////////////////////////////////////////////////
 302:../reversi8_2018.c **** // Recorre todo el tablero comprobando en cada posición si se puede mover
 303:../reversi8_2018.c **** // En caso afirmativo, consulta la puntuación de la posición y si es la mejor
 304:../reversi8_2018.c **** // que se ha encontrado la guarda
 305:../reversi8_2018.c **** // Al acabar escribe el movimiento seleccionado en f y c
 306:../reversi8_2018.c **** 
 307:../reversi8_2018.c **** // Candidatas
 308:../reversi8_2018.c **** // NO    0
 309:../reversi8_2018.c **** // SI    1
 310:../reversi8_2018.c **** // CASILLA_OCUPADA 2
 311:../reversi8_2018.c **** int elegir_mov(char candidatas[][DIM], char tablero[][DIM], char *f, char *c)
 312:../reversi8_2018.c **** {
 1769              		.loc 1 312 0
 1770              		.cfi_startproc
 1771              		@ Function supports interworking.
 1772              		@ args = 0, pretend = 0, frame = 56
 1773              		@ frame_needed = 1, uses_anonymous_args = 0
 1774 0674 0DC0A0E1 		mov	ip, sp
 1775              	.LCFI14:
 1776              		.cfi_def_cfa_register 12
 1777 0678 00D82DE9 		stmfd	sp!, {fp, ip, lr, pc}
 1778 067c 04B04CE2 		sub	fp, ip, #4
 1779              		.cfi_offset 14, -8
 1780              		.cfi_offset 13, -12
 1781              		.cfi_offset 11, -16
 1782              	.LCFI15:
 1783              		.cfi_def_cfa 11, 4
 1784 0680 48D04DE2 		sub	sp, sp, #72
 1785 0684 38000BE5 		str	r0, [fp, #-56]
 1786 0688 3C100BE5 		str	r1, [fp, #-60]
 1787 068c 40200BE5 		str	r2, [fp, #-64]
 1788 0690 44300BE5 		str	r3, [fp, #-68]
 313:../reversi8_2018.c ****     int i, j, k, found;
 314:../reversi8_2018.c ****     int mf = -1; // almacena la fila del mejor movimiento encontrado
 1789              		.loc 1 314 0
 1790 0694 0030E0E3 		mvn	r3, #0
 1791 0698 20300BE5 		str	r3, [fp, #-32]
 315:../reversi8_2018.c ****     int mc;      // almacena la columna del mejor movimiento encontrado
 316:../reversi8_2018.c ****     char mejor = 0; // almacena el mejor valor encontrado
 1792              		.loc 1 316 0
 1793 069c 0030A0E3 		mov	r3, #0
 1794 06a0 25304BE5 		strb	r3, [fp, #-37]
 317:../reversi8_2018.c ****     int patron, longitud;
 318:../reversi8_2018.c ****     char SF, SC; // cantidades a sumar para movernos en la dirección que toque
 319:../reversi8_2018.c **** 
 320:../reversi8_2018.c ****     // Recorremos todo el tablero comprobando dónde podemos mover
 321:../reversi8_2018.c ****     // Comparamos la puntuación de los movimientos encontrados y nos quedamos con el mejor
 322:../reversi8_2018.c ****     for (i=0; i<DIM; i++)
 1795              		.loc 1 322 0
 1796 06a4 0030A0E3 		mov	r3, #0
 1797 06a8 10300BE5 		str	r3, [fp, #-16]
 1798 06ac 620000EA 		b	.L30
 1799              	.L37:
 323:../reversi8_2018.c ****     {
 324:../reversi8_2018.c ****         for (j=0; j<DIM; j++)
 1800              		.loc 1 324 0
 1801 06b0 0030A0E3 		mov	r3, #0
 1802 06b4 14300BE5 		str	r3, [fp, #-20]
 1803 06b8 590000EA 		b	.L31
 1804              	.L36:
 325:../reversi8_2018.c ****         {   // indica en qué casillas quizá se pueda mover
 326:../reversi8_2018.c ****             if (candidatas[i][j] == SI)
 1805              		.loc 1 326 0
 1806 06bc 10301BE5 		ldr	r3, [fp, #-16]
 1807 06c0 8331A0E1 		mov	r3, r3, asl #3
 1808 06c4 38201BE5 		ldr	r2, [fp, #-56]
 1809 06c8 032082E0 		add	r2, r2, r3
 1810 06cc 14301BE5 		ldr	r3, [fp, #-20]
 1811 06d0 033082E0 		add	r3, r2, r3
 1812 06d4 0020D3E5 		ldrb	r2, [r3, #0]	@ zero_extendqisi2
 1813 06d8 A0319FE5 		ldr	r3, .L38
 1814 06dc 0030D3E5 		ldrb	r3, [r3, #0]	@ zero_extendqisi2
 1815 06e0 030052E1 		cmp	r2, r3
 1816 06e4 4B00001A 		bne	.L32
 327:../reversi8_2018.c ****             {
 328:../reversi8_2018.c ****                 if (tablero[i][j] == CASILLA_VACIA)
 1817              		.loc 1 328 0
 1818 06e8 10301BE5 		ldr	r3, [fp, #-16]
 1819 06ec 8331A0E1 		mov	r3, r3, asl #3
 1820 06f0 3C201BE5 		ldr	r2, [fp, #-60]
 1821 06f4 032082E0 		add	r2, r2, r3
 1822 06f8 14301BE5 		ldr	r3, [fp, #-20]
 1823 06fc 033082E0 		add	r3, r2, r3
 1824 0700 0030D3E5 		ldrb	r3, [r3, #0]	@ zero_extendqisi2
 1825 0704 000053E3 		cmp	r3, #0
 1826 0708 4200001A 		bne	.L32
 329:../reversi8_2018.c ****                 {
 330:../reversi8_2018.c ****                     found = 0;
 1827              		.loc 1 330 0
 1828 070c 0030A0E3 		mov	r3, #0
 1829 0710 1C300BE5 		str	r3, [fp, #-28]
 331:../reversi8_2018.c ****                     k = 0;
 1830              		.loc 1 331 0
 1831 0714 0030A0E3 		mov	r3, #0
 1832 0718 18300BE5 		str	r3, [fp, #-24]
 332:../reversi8_2018.c **** 
 333:../reversi8_2018.c ****                     // en este bucle comprobamos si es un movimiento válido
 334:../reversi8_2018.c ****                     // (es decir si implica voltear en alguna dirección)
 335:../reversi8_2018.c ****                     while ((found == 0) && (k < DIM))
 1833              		.loc 1 335 0
 1834 071c 370000EA 		b	.L33
 1835              	.L35:
 336:../reversi8_2018.c ****                     {
 337:../reversi8_2018.c ****                         SF = vSF[k];    // k representa la dirección que miramos
 1836              		.loc 1 337 0
 1837 0720 5C219FE5 		ldr	r2, .L38+4
 1838 0724 18301BE5 		ldr	r3, [fp, #-24]
 1839 0728 033082E0 		add	r3, r2, r3
 1840 072c 0030D3E5 		ldrb	r3, [r3, #0]
 1841 0730 26304BE5 		strb	r3, [fp, #-38]
 338:../reversi8_2018.c ****                         SC = vSC[k];    // 1 es norte, 2 NE, 3 E ...
 1842              		.loc 1 338 0
 1843 0734 4C219FE5 		ldr	r2, .L38+8
 1844 0738 18301BE5 		ldr	r3, [fp, #-24]
 1845 073c 033082E0 		add	r3, r2, r3
 1846 0740 0030D3E5 		ldrb	r3, [r3, #0]
 1847 0744 27304BE5 		strb	r3, [fp, #-39]
 339:../reversi8_2018.c **** 
 340:../reversi8_2018.c ****                         // nos dice qué hay que voltear en cada dirección
 341:../reversi8_2018.c ****                         longitud = 0;
 1848              		.loc 1 341 0
 1849 0748 0030A0E3 		mov	r3, #0
 1850 074c 30300BE5 		str	r3, [fp, #-48]
 342:../reversi8_2018.c **** 
 343:../reversi8_2018.c ****                         switch (MODO) {
 344:../reversi8_2018.c ****                         case 1:
 345:../reversi8_2018.c ****                         	patron = patron_volteo_arm_c(tablero, &longitud, i, j, SF, SC, FICHA_BLANC
 1851              		.loc 1 345 0
 1852 0750 10301BE5 		ldr	r3, [fp, #-16]
 1853 0754 FF2003E2 		and	r2, r3, #255
 1854 0758 14301BE5 		ldr	r3, [fp, #-20]
 1855 075c FF3003E2 		and	r3, r3, #255
 1856 0760 30104BE2 		sub	r1, fp, #48
 1857 0764 26005BE5 		ldrb	r0, [fp, #-38]	@ zero_extendqisi2
 1858 0768 00008DE5 		str	r0, [sp, #0]
 1859 076c 27005BE5 		ldrb	r0, [fp, #-39]	@ zero_extendqisi2
 1860 0770 04008DE5 		str	r0, [sp, #4]
 1861 0774 0100A0E3 		mov	r0, #1
 1862 0778 08008DE5 		str	r0, [sp, #8]
 1863 077c 3C001BE5 		ldr	r0, [fp, #-60]
 1864 0780 FEFFFFEB 		bl	patron_volteo_arm_c
 1865 0784 2C000BE5 		str	r0, [fp, #-44]
 346:../reversi8_2018.c ****                         	break;
 347:../reversi8_2018.c ****                         default:
 348:../reversi8_2018.c ****                         	patron = patron_volteo(tablero, &longitud, i, j, SF, SC, FICHA_BLANCA);
 349:../reversi8_2018.c ****                         	break;
 350:../reversi8_2018.c ****                         }
 351:../reversi8_2018.c ****                         //  //printf("%d ", patron);
 352:../reversi8_2018.c ****                         if (patron == PATRON_ENCONTRADO)
 1866              		.loc 1 352 0
 1867 0788 2C301BE5 		ldr	r3, [fp, #-44]
 1868 078c 010053E3 		cmp	r3, #1
 1869 0790 1700001A 		bne	.L34
 353:../reversi8_2018.c ****                         {
 354:../reversi8_2018.c ****                             found = 1;
 1870              		.loc 1 354 0
 1871 0794 0130A0E3 		mov	r3, #1
 1872 0798 1C300BE5 		str	r3, [fp, #-28]
 355:../reversi8_2018.c ****                             if (tabla_valor[i][j] > mejor)
 1873              		.loc 1 355 0
 1874 079c E8209FE5 		ldr	r2, .L38+12
 1875 07a0 10301BE5 		ldr	r3, [fp, #-16]
 1876 07a4 8311A0E1 		mov	r1, r3, asl #3
 1877 07a8 14301BE5 		ldr	r3, [fp, #-20]
 1878 07ac 033081E0 		add	r3, r1, r3
 1879 07b0 033082E0 		add	r3, r2, r3
 1880 07b4 0030D3E5 		ldrb	r3, [r3, #0]	@ zero_extendqisi2
 1881 07b8 25205BE5 		ldrb	r2, [fp, #-37]	@ zero_extendqisi2
 1882 07bc 030052E1 		cmp	r2, r3
 1883 07c0 0B00002A 		bcs	.L34
 356:../reversi8_2018.c ****                             {
 357:../reversi8_2018.c ****                                 mf = i;
 1884              		.loc 1 357 0
 1885 07c4 10301BE5 		ldr	r3, [fp, #-16]
 1886 07c8 20300BE5 		str	r3, [fp, #-32]
 358:../reversi8_2018.c ****                                 mc = j;
 1887              		.loc 1 358 0
 1888 07cc 14301BE5 		ldr	r3, [fp, #-20]
 1889 07d0 24300BE5 		str	r3, [fp, #-36]
 359:../reversi8_2018.c ****                                 mejor = tabla_valor[i][j];
 1890              		.loc 1 359 0
 1891 07d4 B0209FE5 		ldr	r2, .L38+12
 1892 07d8 10301BE5 		ldr	r3, [fp, #-16]
 1893 07dc 8311A0E1 		mov	r1, r3, asl #3
 1894 07e0 14301BE5 		ldr	r3, [fp, #-20]
 1895 07e4 033081E0 		add	r3, r1, r3
 1896 07e8 033082E0 		add	r3, r2, r3
 1897 07ec 0030D3E5 		ldrb	r3, [r3, #0]
 1898 07f0 25304BE5 		strb	r3, [fp, #-37]
 1899              	.L34:
 360:../reversi8_2018.c ****                             }
 361:../reversi8_2018.c ****                         }
 362:../reversi8_2018.c ****                         k++;
 1900              		.loc 1 362 0
 1901 07f4 18301BE5 		ldr	r3, [fp, #-24]
 1902 07f8 013083E2 		add	r3, r3, #1
 1903 07fc 18300BE5 		str	r3, [fp, #-24]
 1904              	.L33:
 335:../reversi8_2018.c ****                     while ((found == 0) && (k < DIM))
 1905              		.loc 1 335 0 discriminator 1
 1906 0800 1C301BE5 		ldr	r3, [fp, #-28]
 1907 0804 000053E3 		cmp	r3, #0
 1908 0808 0200001A 		bne	.L32
 335:../reversi8_2018.c ****                     while ((found == 0) && (k < DIM))
 1909              		.loc 1 335 0 is_stmt 0 discriminator 2
 1910 080c 18301BE5 		ldr	r3, [fp, #-24]
 1911 0810 070053E3 		cmp	r3, #7
 1912 0814 C1FFFFDA 		ble	.L35
 1913              	.L32:
 324:../reversi8_2018.c ****         for (j=0; j<DIM; j++)
 1914              		.loc 1 324 0 is_stmt 1
 1915 0818 14301BE5 		ldr	r3, [fp, #-20]
 1916 081c 013083E2 		add	r3, r3, #1
 1917 0820 14300BE5 		str	r3, [fp, #-20]
 1918              	.L31:
 324:../reversi8_2018.c ****         for (j=0; j<DIM; j++)
 1919              		.loc 1 324 0 is_stmt 0 discriminator 1
 1920 0824 14301BE5 		ldr	r3, [fp, #-20]
 1921 0828 070053E3 		cmp	r3, #7
 1922 082c A2FFFFDA 		ble	.L36
 322:../reversi8_2018.c ****     for (i=0; i<DIM; i++)
 1923              		.loc 1 322 0 is_stmt 1
 1924 0830 10301BE5 		ldr	r3, [fp, #-16]
 1925 0834 013083E2 		add	r3, r3, #1
 1926 0838 10300BE5 		str	r3, [fp, #-16]
 1927              	.L30:
 322:../reversi8_2018.c ****     for (i=0; i<DIM; i++)
 1928              		.loc 1 322 0 is_stmt 0 discriminator 1
 1929 083c 10301BE5 		ldr	r3, [fp, #-16]
 1930 0840 070053E3 		cmp	r3, #7
 1931 0844 99FFFFDA 		ble	.L37
 363:../reversi8_2018.c ****                         // si no hemos encontrado nada probamos con la siguiente dirección
 364:../reversi8_2018.c ****                     }
 365:../reversi8_2018.c ****                 }
 366:../reversi8_2018.c ****             }
 367:../reversi8_2018.c ****         }
 368:../reversi8_2018.c ****     }
 369:../reversi8_2018.c ****     *f = (char) mf;
 1932              		.loc 1 369 0 is_stmt 1
 1933 0848 20301BE5 		ldr	r3, [fp, #-32]
 1934 084c FF2003E2 		and	r2, r3, #255
 1935 0850 40301BE5 		ldr	r3, [fp, #-64]
 1936 0854 0020C3E5 		strb	r2, [r3, #0]
 370:../reversi8_2018.c ****     *c = (char) mc;
 1937              		.loc 1 370 0
 1938 0858 24301BE5 		ldr	r3, [fp, #-36]
 1939 085c FF2003E2 		and	r2, r3, #255
 1940 0860 44301BE5 		ldr	r3, [fp, #-68]
 1941 0864 0020C3E5 		strb	r2, [r3, #0]
 371:../reversi8_2018.c ****     leds_off();
 1942              		.loc 1 371 0
 1943 0868 FEFFFFEB 		bl	leds_off
 372:../reversi8_2018.c ****     // si no se ha encontrado una posición válida devuelve -1
 373:../reversi8_2018.c ****     return mf;
 1944              		.loc 1 373 0
 1945 086c 20301BE5 		ldr	r3, [fp, #-32]
 374:../reversi8_2018.c **** }
 1946              		.loc 1 374 0
 1947 0870 0300A0E1 		mov	r0, r3
 1948 0874 0CD04BE2 		sub	sp, fp, #12
 1949 0878 00689DE8 		ldmfd	sp, {fp, sp, lr}
 1950 087c 1EFF2FE1 		bx	lr
 1951              	.L39:
 1952              		.align	2
 1953              	.L38:
 1954 0880 00000000 		.word	SI
 1955 0884 00000000 		.word	vSF
 1956 0888 00000000 		.word	vSC
 1957 088c 08000000 		.word	tabla_valor
 1958              		.cfi_endproc
 1959              	.LFE7:
 1961              		.align	2
 1962              		.global	contar
 1964              	contar:
 1965              	.LFB8:
 375:../reversi8_2018.c **** ////////////////////////////////////////////////////////////////////////////////
 376:../reversi8_2018.c **** // Cuenta el número de fichas de cada color.
 377:../reversi8_2018.c **** // Los guarda en la dirección b (blancas) y n (negras)
 378:../reversi8_2018.c **** void contar(char tablero[][DIM], int *b, int *n)
 379:../reversi8_2018.c **** {
 1966              		.loc 1 379 0
 1967              		.cfi_startproc
 1968              		@ Function supports interworking.
 1969              		@ args = 0, pretend = 0, frame = 24
 1970              		@ frame_needed = 1, uses_anonymous_args = 0
 1971 0890 0DC0A0E1 		mov	ip, sp
 1972              	.LCFI16:
 1973              		.cfi_def_cfa_register 12
 1974 0894 00D82DE9 		stmfd	sp!, {fp, ip, lr, pc}
 1975 0898 04B04CE2 		sub	fp, ip, #4
 1976              		.cfi_offset 14, -8
 1977              		.cfi_offset 13, -12
 1978              		.cfi_offset 11, -16
 1979              	.LCFI17:
 1980              		.cfi_def_cfa 11, 4
 1981 089c 18D04DE2 		sub	sp, sp, #24
 1982 08a0 18000BE5 		str	r0, [fp, #-24]
 1983 08a4 1C100BE5 		str	r1, [fp, #-28]
 1984 08a8 20200BE5 		str	r2, [fp, #-32]
 380:../reversi8_2018.c ****     int i,j;
 381:../reversi8_2018.c **** 
 382:../reversi8_2018.c ****     *b = 0;
 1985              		.loc 1 382 0
 1986 08ac 1C301BE5 		ldr	r3, [fp, #-28]
 1987 08b0 0020A0E3 		mov	r2, #0
 1988 08b4 002083E5 		str	r2, [r3, #0]
 383:../reversi8_2018.c ****     *n = 0;
 1989              		.loc 1 383 0
 1990 08b8 20301BE5 		ldr	r3, [fp, #-32]
 1991 08bc 0020A0E3 		mov	r2, #0
 1992 08c0 002083E5 		str	r2, [r3, #0]
 384:../reversi8_2018.c **** 
 385:../reversi8_2018.c ****     // recorremos todo el tablero contando las fichas de cada color
 386:../reversi8_2018.c ****     for (i=0; i<DIM; i++)
 1993              		.loc 1 386 0
 1994 08c4 0030A0E3 		mov	r3, #0
 1995 08c8 10300BE5 		str	r3, [fp, #-16]
 1996 08cc 280000EA 		b	.L41
 1997              	.L46:
 387:../reversi8_2018.c ****     {
 388:../reversi8_2018.c ****         for (j=0; j<DIM; j++)
 1998              		.loc 1 388 0
 1999 08d0 0030A0E3 		mov	r3, #0
 2000 08d4 14300BE5 		str	r3, [fp, #-20]
 2001 08d8 1F0000EA 		b	.L42
 2002              	.L45:
 389:../reversi8_2018.c ****         {
 390:../reversi8_2018.c ****             if (tablero[i][j] == FICHA_BLANCA)
 2003              		.loc 1 390 0
 2004 08dc 10301BE5 		ldr	r3, [fp, #-16]
 2005 08e0 8331A0E1 		mov	r3, r3, asl #3
 2006 08e4 18201BE5 		ldr	r2, [fp, #-24]
 2007 08e8 032082E0 		add	r2, r2, r3
 2008 08ec 14301BE5 		ldr	r3, [fp, #-20]
 2009 08f0 033082E0 		add	r3, r2, r3
 2010 08f4 0030D3E5 		ldrb	r3, [r3, #0]	@ zero_extendqisi2
 2011 08f8 010053E3 		cmp	r3, #1
 2012 08fc 0500001A 		bne	.L43
 391:../reversi8_2018.c ****             {
 392:../reversi8_2018.c ****                 (*b)++;
 2013              		.loc 1 392 0
 2014 0900 1C301BE5 		ldr	r3, [fp, #-28]
 2015 0904 003093E5 		ldr	r3, [r3, #0]
 2016 0908 012083E2 		add	r2, r3, #1
 2017 090c 1C301BE5 		ldr	r3, [fp, #-28]
 2018 0910 002083E5 		str	r2, [r3, #0]
 2019 0914 0D0000EA 		b	.L44
 2020              	.L43:
 393:../reversi8_2018.c ****             }
 394:../reversi8_2018.c ****             else if (tablero[i][j] == FICHA_NEGRA)
 2021              		.loc 1 394 0
 2022 0918 10301BE5 		ldr	r3, [fp, #-16]
 2023 091c 8331A0E1 		mov	r3, r3, asl #3
 2024 0920 18201BE5 		ldr	r2, [fp, #-24]
 2025 0924 032082E0 		add	r2, r2, r3
 2026 0928 14301BE5 		ldr	r3, [fp, #-20]
 2027 092c 033082E0 		add	r3, r2, r3
 2028 0930 0030D3E5 		ldrb	r3, [r3, #0]	@ zero_extendqisi2
 2029 0934 020053E3 		cmp	r3, #2
 2030 0938 0400001A 		bne	.L44
 395:../reversi8_2018.c ****             {
 396:../reversi8_2018.c ****                 (*n)++;
 2031              		.loc 1 396 0
 2032 093c 20301BE5 		ldr	r3, [fp, #-32]
 2033 0940 003093E5 		ldr	r3, [r3, #0]
 2034 0944 012083E2 		add	r2, r3, #1
 2035 0948 20301BE5 		ldr	r3, [fp, #-32]
 2036 094c 002083E5 		str	r2, [r3, #0]
 2037              	.L44:
 388:../reversi8_2018.c ****         for (j=0; j<DIM; j++)
 2038              		.loc 1 388 0
 2039 0950 14301BE5 		ldr	r3, [fp, #-20]
 2040 0954 013083E2 		add	r3, r3, #1
 2041 0958 14300BE5 		str	r3, [fp, #-20]
 2042              	.L42:
 388:../reversi8_2018.c ****         for (j=0; j<DIM; j++)
 2043              		.loc 1 388 0 is_stmt 0 discriminator 1
 2044 095c 14301BE5 		ldr	r3, [fp, #-20]
 2045 0960 070053E3 		cmp	r3, #7
 2046 0964 DCFFFFDA 		ble	.L45
 386:../reversi8_2018.c ****     for (i=0; i<DIM; i++)
 2047              		.loc 1 386 0 is_stmt 1
 2048 0968 10301BE5 		ldr	r3, [fp, #-16]
 2049 096c 013083E2 		add	r3, r3, #1
 2050 0970 10300BE5 		str	r3, [fp, #-16]
 2051              	.L41:
 386:../reversi8_2018.c ****     for (i=0; i<DIM; i++)
 2052              		.loc 1 386 0 is_stmt 0 discriminator 1
 2053 0974 10301BE5 		ldr	r3, [fp, #-16]
 2054 0978 070053E3 		cmp	r3, #7
 2055 097c D3FFFFDA 		ble	.L46
 397:../reversi8_2018.c ****             }
 398:../reversi8_2018.c ****         }
 399:../reversi8_2018.c ****     }
 400:../reversi8_2018.c **** }
 2056              		.loc 1 400 0 is_stmt 1
 2057 0980 0CD04BE2 		sub	sp, fp, #12
 2058 0984 00689DE8 		ldmfd	sp, {fp, sp, lr}
 2059 0988 1EFF2FE1 		bx	lr
 2060              		.cfi_endproc
 2061              	.LFE8:
 2063              		.align	2
 2064              		.global	actualizar_candidatas
 2066              	actualizar_candidatas:
 2067              	.LFB9:
 401:../reversi8_2018.c **** 
 402:../reversi8_2018.c **** void actualizar_candidatas(char candidatas[][DIM], char f, char c)
 403:../reversi8_2018.c **** {
 2068              		.loc 1 403 0
 2069              		.cfi_startproc
 2070              		@ Function supports interworking.
 2071              		@ args = 0, pretend = 0, frame = 8
 2072              		@ frame_needed = 1, uses_anonymous_args = 0
 2073 098c 0DC0A0E1 		mov	ip, sp
 2074              	.LCFI18:
 2075              		.cfi_def_cfa_register 12
 2076 0990 00D82DE9 		stmfd	sp!, {fp, ip, lr, pc}
 2077 0994 04B04CE2 		sub	fp, ip, #4
 2078              		.cfi_offset 14, -8
 2079              		.cfi_offset 13, -12
 2080              		.cfi_offset 11, -16
 2081              	.LCFI19:
 2082              		.cfi_def_cfa 11, 4
 2083 0998 08D04DE2 		sub	sp, sp, #8
 2084 099c 10000BE5 		str	r0, [fp, #-16]
 2085 09a0 0230A0E1 		mov	r3, r2
 2086 09a4 0120A0E1 		mov	r2, r1
 2087 09a8 11204BE5 		strb	r2, [fp, #-17]
 2088 09ac 12304BE5 		strb	r3, [fp, #-18]
 404:../reversi8_2018.c ****     // donde ya se ha colocado no se puede volver a colocar
 405:../reversi8_2018.c ****     // En las posiciones alrededor sí
 406:../reversi8_2018.c ****     candidatas[f][c] = CASILLA_OCUPADA;
 2089              		.loc 1 406 0
 2090 09b0 11305BE5 		ldrb	r3, [fp, #-17]	@ zero_extendqisi2
 2091 09b4 8331A0E1 		mov	r3, r3, asl #3
 2092 09b8 10201BE5 		ldr	r2, [fp, #-16]
 2093 09bc 032082E0 		add	r2, r2, r3
 2094 09c0 12305BE5 		ldrb	r3, [fp, #-18]	@ zero_extendqisi2
 2095 09c4 10139FE5 		ldr	r1, .L56
 2096 09c8 0010D1E5 		ldrb	r1, [r1, #0]	@ zero_extendqisi2
 2097 09cc 0310C2E7 		strb	r1, [r2, r3]
 407:../reversi8_2018.c ****     if (f > 0)
 2098              		.loc 1 407 0
 2099 09d0 11305BE5 		ldrb	r3, [fp, #-17]	@ zero_extendqisi2
 2100 09d4 000053E3 		cmp	r3, #0
 2101 09d8 4500000A 		beq	.L48
 408:../reversi8_2018.c ****     {
 409:../reversi8_2018.c ****         if (candidatas[f-1][c] != CASILLA_OCUPADA)
 2102              		.loc 1 409 0
 2103 09dc 11305BE5 		ldrb	r3, [fp, #-17]	@ zero_extendqisi2
 2104 09e0 013043E2 		sub	r3, r3, #1
 2105 09e4 8331A0E1 		mov	r3, r3, asl #3
 2106 09e8 10201BE5 		ldr	r2, [fp, #-16]
 2107 09ec 032082E0 		add	r2, r2, r3
 2108 09f0 12305BE5 		ldrb	r3, [fp, #-18]	@ zero_extendqisi2
 2109 09f4 0320D2E7 		ldrb	r2, [r2, r3]	@ zero_extendqisi2
 2110 09f8 DC329FE5 		ldr	r3, .L56
 2111 09fc 0030D3E5 		ldrb	r3, [r3, #0]	@ zero_extendqisi2
 2112 0a00 030052E1 		cmp	r2, r3
 2113 0a04 0800000A 		beq	.L49
 410:../reversi8_2018.c ****             candidatas[f-1][c] = SI;
 2114              		.loc 1 410 0
 2115 0a08 11305BE5 		ldrb	r3, [fp, #-17]	@ zero_extendqisi2
 2116 0a0c 013043E2 		sub	r3, r3, #1
 2117 0a10 8331A0E1 		mov	r3, r3, asl #3
 2118 0a14 10201BE5 		ldr	r2, [fp, #-16]
 2119 0a18 032082E0 		add	r2, r2, r3
 2120 0a1c 12305BE5 		ldrb	r3, [fp, #-18]	@ zero_extendqisi2
 2121 0a20 B8129FE5 		ldr	r1, .L56+4
 2122 0a24 0010D1E5 		ldrb	r1, [r1, #0]	@ zero_extendqisi2
 2123 0a28 0310C2E7 		strb	r1, [r2, r3]
 2124              	.L49:
 411:../reversi8_2018.c **** 
 412:../reversi8_2018.c ****         if ((c > 0) && (candidatas[f-1][c-1] != CASILLA_OCUPADA))
 2125              		.loc 1 412 0
 2126 0a2c 12305BE5 		ldrb	r3, [fp, #-18]	@ zero_extendqisi2
 2127 0a30 000053E3 		cmp	r3, #0
 2128 0a34 1500000A 		beq	.L50
 2129              		.loc 1 412 0 is_stmt 0 discriminator 1
 2130 0a38 11305BE5 		ldrb	r3, [fp, #-17]	@ zero_extendqisi2
 2131 0a3c 013043E2 		sub	r3, r3, #1
 2132 0a40 8331A0E1 		mov	r3, r3, asl #3
 2133 0a44 10201BE5 		ldr	r2, [fp, #-16]
 2134 0a48 032082E0 		add	r2, r2, r3
 2135 0a4c 12305BE5 		ldrb	r3, [fp, #-18]	@ zero_extendqisi2
 2136 0a50 013043E2 		sub	r3, r3, #1
 2137 0a54 0320D2E7 		ldrb	r2, [r2, r3]	@ zero_extendqisi2
 2138 0a58 7C329FE5 		ldr	r3, .L56
 2139 0a5c 0030D3E5 		ldrb	r3, [r3, #0]	@ zero_extendqisi2
 2140 0a60 030052E1 		cmp	r2, r3
 2141 0a64 0900000A 		beq	.L50
 413:../reversi8_2018.c ****             candidatas[f-1][c-1] = SI;
 2142              		.loc 1 413 0 is_stmt 1
 2143 0a68 11305BE5 		ldrb	r3, [fp, #-17]	@ zero_extendqisi2
 2144 0a6c 013043E2 		sub	r3, r3, #1
 2145 0a70 8331A0E1 		mov	r3, r3, asl #3
 2146 0a74 10201BE5 		ldr	r2, [fp, #-16]
 2147 0a78 032082E0 		add	r2, r2, r3
 2148 0a7c 12305BE5 		ldrb	r3, [fp, #-18]	@ zero_extendqisi2
 2149 0a80 013043E2 		sub	r3, r3, #1
 2150 0a84 54129FE5 		ldr	r1, .L56+4
 2151 0a88 0010D1E5 		ldrb	r1, [r1, #0]	@ zero_extendqisi2
 2152 0a8c 0310C2E7 		strb	r1, [r2, r3]
 2153              	.L50:
 414:../reversi8_2018.c **** 
 415:../reversi8_2018.c ****         if ((c < 7) && (candidatas[f-1][c+1] != CASILLA_OCUPADA))
 2154              		.loc 1 415 0
 2155 0a90 12305BE5 		ldrb	r3, [fp, #-18]	@ zero_extendqisi2
 2156 0a94 060053E3 		cmp	r3, #6
 2157 0a98 1500008A 		bhi	.L48
 2158              		.loc 1 415 0 is_stmt 0 discriminator 1
 2159 0a9c 11305BE5 		ldrb	r3, [fp, #-17]	@ zero_extendqisi2
 2160 0aa0 013043E2 		sub	r3, r3, #1
 2161 0aa4 8331A0E1 		mov	r3, r3, asl #3
 2162 0aa8 10201BE5 		ldr	r2, [fp, #-16]
 2163 0aac 032082E0 		add	r2, r2, r3
 2164 0ab0 12305BE5 		ldrb	r3, [fp, #-18]	@ zero_extendqisi2
 2165 0ab4 013083E2 		add	r3, r3, #1
 2166 0ab8 0320D2E7 		ldrb	r2, [r2, r3]	@ zero_extendqisi2
 2167 0abc 18329FE5 		ldr	r3, .L56
 2168 0ac0 0030D3E5 		ldrb	r3, [r3, #0]	@ zero_extendqisi2
 2169 0ac4 030052E1 		cmp	r2, r3
 2170 0ac8 0900000A 		beq	.L48
 416:../reversi8_2018.c ****             candidatas[f-1][c+1] = SI;
 2171              		.loc 1 416 0 is_stmt 1
 2172 0acc 11305BE5 		ldrb	r3, [fp, #-17]	@ zero_extendqisi2
 2173 0ad0 013043E2 		sub	r3, r3, #1
 2174 0ad4 8331A0E1 		mov	r3, r3, asl #3
 2175 0ad8 10201BE5 		ldr	r2, [fp, #-16]
 2176 0adc 032082E0 		add	r2, r2, r3
 2177 0ae0 12305BE5 		ldrb	r3, [fp, #-18]	@ zero_extendqisi2
 2178 0ae4 013083E2 		add	r3, r3, #1
 2179 0ae8 F0119FE5 		ldr	r1, .L56+4
 2180 0aec 0010D1E5 		ldrb	r1, [r1, #0]	@ zero_extendqisi2
 2181 0af0 0310C2E7 		strb	r1, [r2, r3]
 2182              	.L48:
 417:../reversi8_2018.c ****     }
 418:../reversi8_2018.c ****     if (f < 7)
 2183              		.loc 1 418 0
 2184 0af4 11305BE5 		ldrb	r3, [fp, #-17]	@ zero_extendqisi2
 2185 0af8 060053E3 		cmp	r3, #6
 2186 0afc 4500008A 		bhi	.L51
 419:../reversi8_2018.c ****     {
 420:../reversi8_2018.c ****         if (candidatas[f+1][c] != CASILLA_OCUPADA)
 2187              		.loc 1 420 0
 2188 0b00 11305BE5 		ldrb	r3, [fp, #-17]	@ zero_extendqisi2
 2189 0b04 013083E2 		add	r3, r3, #1
 2190 0b08 8331A0E1 		mov	r3, r3, asl #3
 2191 0b0c 10201BE5 		ldr	r2, [fp, #-16]
 2192 0b10 032082E0 		add	r2, r2, r3
 2193 0b14 12305BE5 		ldrb	r3, [fp, #-18]	@ zero_extendqisi2
 2194 0b18 0320D2E7 		ldrb	r2, [r2, r3]	@ zero_extendqisi2
 2195 0b1c B8319FE5 		ldr	r3, .L56
 2196 0b20 0030D3E5 		ldrb	r3, [r3, #0]	@ zero_extendqisi2
 2197 0b24 030052E1 		cmp	r2, r3
 2198 0b28 0800000A 		beq	.L52
 421:../reversi8_2018.c ****             candidatas[f+1][c] = SI;
 2199              		.loc 1 421 0
 2200 0b2c 11305BE5 		ldrb	r3, [fp, #-17]	@ zero_extendqisi2
 2201 0b30 013083E2 		add	r3, r3, #1
 2202 0b34 8331A0E1 		mov	r3, r3, asl #3
 2203 0b38 10201BE5 		ldr	r2, [fp, #-16]
 2204 0b3c 032082E0 		add	r2, r2, r3
 2205 0b40 12305BE5 		ldrb	r3, [fp, #-18]	@ zero_extendqisi2
 2206 0b44 94119FE5 		ldr	r1, .L56+4
 2207 0b48 0010D1E5 		ldrb	r1, [r1, #0]	@ zero_extendqisi2
 2208 0b4c 0310C2E7 		strb	r1, [r2, r3]
 2209              	.L52:
 422:../reversi8_2018.c **** 
 423:../reversi8_2018.c ****         if ((c > 0) && (candidatas[f+1][c-1] != CASILLA_OCUPADA))
 2210              		.loc 1 423 0
 2211 0b50 12305BE5 		ldrb	r3, [fp, #-18]	@ zero_extendqisi2
 2212 0b54 000053E3 		cmp	r3, #0
 2213 0b58 1500000A 		beq	.L53
 2214              		.loc 1 423 0 is_stmt 0 discriminator 1
 2215 0b5c 11305BE5 		ldrb	r3, [fp, #-17]	@ zero_extendqisi2
 2216 0b60 013083E2 		add	r3, r3, #1
 2217 0b64 8331A0E1 		mov	r3, r3, asl #3
 2218 0b68 10201BE5 		ldr	r2, [fp, #-16]
 2219 0b6c 032082E0 		add	r2, r2, r3
 2220 0b70 12305BE5 		ldrb	r3, [fp, #-18]	@ zero_extendqisi2
 2221 0b74 013043E2 		sub	r3, r3, #1
 2222 0b78 0320D2E7 		ldrb	r2, [r2, r3]	@ zero_extendqisi2
 2223 0b7c 58319FE5 		ldr	r3, .L56
 2224 0b80 0030D3E5 		ldrb	r3, [r3, #0]	@ zero_extendqisi2
 2225 0b84 030052E1 		cmp	r2, r3
 2226 0b88 0900000A 		beq	.L53
 424:../reversi8_2018.c ****             candidatas[f+1][c-1] = SI;
 2227              		.loc 1 424 0 is_stmt 1
 2228 0b8c 11305BE5 		ldrb	r3, [fp, #-17]	@ zero_extendqisi2
 2229 0b90 013083E2 		add	r3, r3, #1
 2230 0b94 8331A0E1 		mov	r3, r3, asl #3
 2231 0b98 10201BE5 		ldr	r2, [fp, #-16]
 2232 0b9c 032082E0 		add	r2, r2, r3
 2233 0ba0 12305BE5 		ldrb	r3, [fp, #-18]	@ zero_extendqisi2
 2234 0ba4 013043E2 		sub	r3, r3, #1
 2235 0ba8 30119FE5 		ldr	r1, .L56+4
 2236 0bac 0010D1E5 		ldrb	r1, [r1, #0]	@ zero_extendqisi2
 2237 0bb0 0310C2E7 		strb	r1, [r2, r3]
 2238              	.L53:
 425:../reversi8_2018.c **** 
 426:../reversi8_2018.c ****         if ((c < 7) && (candidatas[f+1][c+1] != CASILLA_OCUPADA))
 2239              		.loc 1 426 0
 2240 0bb4 12305BE5 		ldrb	r3, [fp, #-18]	@ zero_extendqisi2
 2241 0bb8 060053E3 		cmp	r3, #6
 2242 0bbc 1500008A 		bhi	.L51
 2243              		.loc 1 426 0 is_stmt 0 discriminator 1
 2244 0bc0 11305BE5 		ldrb	r3, [fp, #-17]	@ zero_extendqisi2
 2245 0bc4 013083E2 		add	r3, r3, #1
 2246 0bc8 8331A0E1 		mov	r3, r3, asl #3
 2247 0bcc 10201BE5 		ldr	r2, [fp, #-16]
 2248 0bd0 032082E0 		add	r2, r2, r3
 2249 0bd4 12305BE5 		ldrb	r3, [fp, #-18]	@ zero_extendqisi2
 2250 0bd8 013083E2 		add	r3, r3, #1
 2251 0bdc 0320D2E7 		ldrb	r2, [r2, r3]	@ zero_extendqisi2
 2252 0be0 F4309FE5 		ldr	r3, .L56
 2253 0be4 0030D3E5 		ldrb	r3, [r3, #0]	@ zero_extendqisi2
 2254 0be8 030052E1 		cmp	r2, r3
 2255 0bec 0900000A 		beq	.L51
 427:../reversi8_2018.c ****             candidatas[f+1][c+1] = SI;
 2256              		.loc 1 427 0 is_stmt 1
 2257 0bf0 11305BE5 		ldrb	r3, [fp, #-17]	@ zero_extendqisi2
 2258 0bf4 013083E2 		add	r3, r3, #1
 2259 0bf8 8331A0E1 		mov	r3, r3, asl #3
 2260 0bfc 10201BE5 		ldr	r2, [fp, #-16]
 2261 0c00 032082E0 		add	r2, r2, r3
 2262 0c04 12305BE5 		ldrb	r3, [fp, #-18]	@ zero_extendqisi2
 2263 0c08 013083E2 		add	r3, r3, #1
 2264 0c0c CC109FE5 		ldr	r1, .L56+4
 2265 0c10 0010D1E5 		ldrb	r1, [r1, #0]	@ zero_extendqisi2
 2266 0c14 0310C2E7 		strb	r1, [r2, r3]
 2267              	.L51:
 428:../reversi8_2018.c ****     }
 429:../reversi8_2018.c ****     if ((c > 0) && (candidatas[f][c-1] != CASILLA_OCUPADA))
 2268              		.loc 1 429 0
 2269 0c18 12305BE5 		ldrb	r3, [fp, #-18]	@ zero_extendqisi2
 2270 0c1c 000053E3 		cmp	r3, #0
 2271 0c20 1300000A 		beq	.L54
 2272              		.loc 1 429 0 is_stmt 0 discriminator 1
 2273 0c24 11305BE5 		ldrb	r3, [fp, #-17]	@ zero_extendqisi2
 2274 0c28 8331A0E1 		mov	r3, r3, asl #3
 2275 0c2c 10201BE5 		ldr	r2, [fp, #-16]
 2276 0c30 032082E0 		add	r2, r2, r3
 2277 0c34 12305BE5 		ldrb	r3, [fp, #-18]	@ zero_extendqisi2
 2278 0c38 013043E2 		sub	r3, r3, #1
 2279 0c3c 0320D2E7 		ldrb	r2, [r2, r3]	@ zero_extendqisi2
 2280 0c40 94309FE5 		ldr	r3, .L56
 2281 0c44 0030D3E5 		ldrb	r3, [r3, #0]	@ zero_extendqisi2
 2282 0c48 030052E1 		cmp	r2, r3
 2283 0c4c 0800000A 		beq	.L54
 430:../reversi8_2018.c ****         candidatas[f][c-1] = SI;
 2284              		.loc 1 430 0 is_stmt 1
 2285 0c50 11305BE5 		ldrb	r3, [fp, #-17]	@ zero_extendqisi2
 2286 0c54 8331A0E1 		mov	r3, r3, asl #3
 2287 0c58 10201BE5 		ldr	r2, [fp, #-16]
 2288 0c5c 032082E0 		add	r2, r2, r3
 2289 0c60 12305BE5 		ldrb	r3, [fp, #-18]	@ zero_extendqisi2
 2290 0c64 013043E2 		sub	r3, r3, #1
 2291 0c68 70109FE5 		ldr	r1, .L56+4
 2292 0c6c 0010D1E5 		ldrb	r1, [r1, #0]	@ zero_extendqisi2
 2293 0c70 0310C2E7 		strb	r1, [r2, r3]
 2294              	.L54:
 431:../reversi8_2018.c **** 
 432:../reversi8_2018.c ****     if ((c < 7) && (candidatas[f][c+1] != CASILLA_OCUPADA))
 2295              		.loc 1 432 0
 2296 0c74 12305BE5 		ldrb	r3, [fp, #-18]	@ zero_extendqisi2
 2297 0c78 060053E3 		cmp	r3, #6
 2298 0c7c 1300008A 		bhi	.L47
 2299              		.loc 1 432 0 is_stmt 0 discriminator 1
 2300 0c80 11305BE5 		ldrb	r3, [fp, #-17]	@ zero_extendqisi2
 2301 0c84 8331A0E1 		mov	r3, r3, asl #3
 2302 0c88 10201BE5 		ldr	r2, [fp, #-16]
 2303 0c8c 032082E0 		add	r2, r2, r3
 2304 0c90 12305BE5 		ldrb	r3, [fp, #-18]	@ zero_extendqisi2
 2305 0c94 013083E2 		add	r3, r3, #1
 2306 0c98 0320D2E7 		ldrb	r2, [r2, r3]	@ zero_extendqisi2
 2307 0c9c 38309FE5 		ldr	r3, .L56
 2308 0ca0 0030D3E5 		ldrb	r3, [r3, #0]	@ zero_extendqisi2
 2309 0ca4 030052E1 		cmp	r2, r3
 2310 0ca8 0800000A 		beq	.L47
 433:../reversi8_2018.c ****         candidatas[f][c+1] = SI;
 2311              		.loc 1 433 0 is_stmt 1
 2312 0cac 11305BE5 		ldrb	r3, [fp, #-17]	@ zero_extendqisi2
 2313 0cb0 8331A0E1 		mov	r3, r3, asl #3
 2314 0cb4 10201BE5 		ldr	r2, [fp, #-16]
 2315 0cb8 032082E0 		add	r2, r2, r3
 2316 0cbc 12305BE5 		ldrb	r3, [fp, #-18]	@ zero_extendqisi2
 2317 0cc0 013083E2 		add	r3, r3, #1
 2318 0cc4 14109FE5 		ldr	r1, .L56+4
 2319 0cc8 0010D1E5 		ldrb	r1, [r1, #0]	@ zero_extendqisi2
 2320 0ccc 0310C2E7 		strb	r1, [r2, r3]
 2321              	.L47:
 434:../reversi8_2018.c **** }
 2322              		.loc 1 434 0
 2323 0cd0 0CD04BE2 		sub	sp, fp, #12
 2324 0cd4 00689DE8 		ldmfd	sp, {fp, sp, lr}
 2325 0cd8 1EFF2FE1 		bx	lr
 2326              	.L57:
 2327              		.align	2
 2328              	.L56:
 2329 0cdc 00000000 		.word	CASILLA_OCUPADA
 2330 0ce0 00000000 		.word	SI
 2331              		.cfi_endproc
 2332              	.LFE9:
 2334              		.align	2
 2335              		.global	init_test
 2337              	init_test:
 2338              	.LFB10:
 435:../reversi8_2018.c **** 
 436:../reversi8_2018.c **** int init_test(char tablero[][DIM],char candidatas[][DIM]){
 2339              		.loc 1 436 0
 2340              		.cfi_startproc
 2341              		@ Function supports interworking.
 2342              		@ args = 0, pretend = 0, frame = 16
 2343              		@ frame_needed = 1, uses_anonymous_args = 0
 2344 0ce4 0DC0A0E1 		mov	ip, sp
 2345              	.LCFI20:
 2346              		.cfi_def_cfa_register 12
 2347 0ce8 00D82DE9 		stmfd	sp!, {fp, ip, lr, pc}
 2348 0cec 04B04CE2 		sub	fp, ip, #4
 2349              		.cfi_offset 14, -8
 2350              		.cfi_offset 13, -12
 2351              		.cfi_offset 11, -16
 2352              	.LCFI21:
 2353              		.cfi_def_cfa 11, 4
 2354 0cf0 20D04DE2 		sub	sp, sp, #32
 2355 0cf4 18000BE5 		str	r0, [fp, #-24]
 2356 0cf8 1C100BE5 		str	r1, [fp, #-28]
 437:../reversi8_2018.c **** 	char aux_tablero = tablero[2][3];
 2357              		.loc 1 437 0
 2358 0cfc 18301BE5 		ldr	r3, [fp, #-24]
 2359 0d00 103083E2 		add	r3, r3, #16
 2360 0d04 0330D3E5 		ldrb	r3, [r3, #3]
 2361 0d08 0D304BE5 		strb	r3, [fp, #-13]
 438:../reversi8_2018.c **** 	tablero[2][3]=FICHA_NEGRA;
 2362              		.loc 1 438 0
 2363 0d0c 18301BE5 		ldr	r3, [fp, #-24]
 2364 0d10 103083E2 		add	r3, r3, #16
 2365 0d14 0220A0E3 		mov	r2, #2
 2366 0d18 0320C3E5 		strb	r2, [r3, #3]
 439:../reversi8_2018.c **** 	char aux_candidatas = candidatas[2][3];
 2367              		.loc 1 439 0
 2368 0d1c 1C301BE5 		ldr	r3, [fp, #-28]
 2369 0d20 103083E2 		add	r3, r3, #16
 2370 0d24 0330D3E5 		ldrb	r3, [r3, #3]
 2371 0d28 0E304BE5 		strb	r3, [fp, #-14]
 440:../reversi8_2018.c **** 	candidatas[2][3]=CASILLA_OCUPADA;
 2372              		.loc 1 440 0
 2373 0d2c 1C301BE5 		ldr	r3, [fp, #-28]
 2374 0d30 103083E2 		add	r3, r3, #16
 2375 0d34 5C219FE5 		ldr	r2, .L59
 2376 0d38 0020D2E5 		ldrb	r2, [r2, #0]	@ zero_extendqisi2
 2377 0d3c 0320C3E5 		strb	r2, [r3, #3]
 441:../reversi8_2018.c ****     int longitud=0;
 2378              		.loc 1 441 0
 2379 0d40 0030A0E3 		mov	r3, #0
 2380 0d44 14300BE5 		str	r3, [fp, #-20]
 442:../reversi8_2018.c ****     patron_volteo_test(tablero,&longitud,'2','3','-1','0',FICHA_NEGRA);
 2381              		.loc 1 442 0
 2382 0d48 14304BE2 		sub	r3, fp, #20
 2383 0d4c 3120A0E3 		mov	r2, #49
 2384 0d50 00208DE5 		str	r2, [sp, #0]
 2385 0d54 3020A0E3 		mov	r2, #48
 2386 0d58 04208DE5 		str	r2, [sp, #4]
 2387 0d5c 0220A0E3 		mov	r2, #2
 2388 0d60 08208DE5 		str	r2, [sp, #8]
 2389 0d64 18001BE5 		ldr	r0, [fp, #-24]
 2390 0d68 0310A0E1 		mov	r1, r3
 2391 0d6c 3220A0E3 		mov	r2, #50
 2392 0d70 3330A0E3 		mov	r3, #51
 2393 0d74 FEFFFFEB 		bl	patron_volteo_test
 443:../reversi8_2018.c ****     patron_volteo_test(tablero,&longitud,'2','3','1','0',FICHA_NEGRA);
 2394              		.loc 1 443 0
 2395 0d78 14304BE2 		sub	r3, fp, #20
 2396 0d7c 3120A0E3 		mov	r2, #49
 2397 0d80 00208DE5 		str	r2, [sp, #0]
 2398 0d84 3020A0E3 		mov	r2, #48
 2399 0d88 04208DE5 		str	r2, [sp, #4]
 2400 0d8c 0220A0E3 		mov	r2, #2
 2401 0d90 08208DE5 		str	r2, [sp, #8]
 2402 0d94 18001BE5 		ldr	r0, [fp, #-24]
 2403 0d98 0310A0E1 		mov	r1, r3
 2404 0d9c 3220A0E3 		mov	r2, #50
 2405 0da0 3330A0E3 		mov	r3, #51
 2406 0da4 FEFFFFEB 		bl	patron_volteo_test
 444:../reversi8_2018.c ****     patron_volteo_test(tablero,&longitud,'2','3','1','1',FICHA_NEGRA);
 2407              		.loc 1 444 0
 2408 0da8 14304BE2 		sub	r3, fp, #20
 2409 0dac 3120A0E3 		mov	r2, #49
 2410 0db0 00208DE5 		str	r2, [sp, #0]
 2411 0db4 3120A0E3 		mov	r2, #49
 2412 0db8 04208DE5 		str	r2, [sp, #4]
 2413 0dbc 0220A0E3 		mov	r2, #2
 2414 0dc0 08208DE5 		str	r2, [sp, #8]
 2415 0dc4 18001BE5 		ldr	r0, [fp, #-24]
 2416 0dc8 0310A0E1 		mov	r1, r3
 2417 0dcc 3220A0E3 		mov	r2, #50
 2418 0dd0 3330A0E3 		mov	r3, #51
 2419 0dd4 FEFFFFEB 		bl	patron_volteo_test
 445:../reversi8_2018.c ****     patron_volteo_test(tablero,&longitud,'2','3','0','-1',FICHA_NEGRA);
 2420              		.loc 1 445 0
 2421 0dd8 14304BE2 		sub	r3, fp, #20
 2422 0ddc 3020A0E3 		mov	r2, #48
 2423 0de0 00208DE5 		str	r2, [sp, #0]
 2424 0de4 3120A0E3 		mov	r2, #49
 2425 0de8 04208DE5 		str	r2, [sp, #4]
 2426 0dec 0220A0E3 		mov	r2, #2
 2427 0df0 08208DE5 		str	r2, [sp, #8]
 2428 0df4 18001BE5 		ldr	r0, [fp, #-24]
 2429 0df8 0310A0E1 		mov	r1, r3
 2430 0dfc 3220A0E3 		mov	r2, #50
 2431 0e00 3330A0E3 		mov	r3, #51
 2432 0e04 FEFFFFEB 		bl	patron_volteo_test
 446:../reversi8_2018.c ****     patron_volteo_test(tablero,&longitud,'2','3','-1','-1',FICHA_NEGRA);
 2433              		.loc 1 446 0
 2434 0e08 14304BE2 		sub	r3, fp, #20
 2435 0e0c 3120A0E3 		mov	r2, #49
 2436 0e10 00208DE5 		str	r2, [sp, #0]
 2437 0e14 3120A0E3 		mov	r2, #49
 2438 0e18 04208DE5 		str	r2, [sp, #4]
 2439 0e1c 0220A0E3 		mov	r2, #2
 2440 0e20 08208DE5 		str	r2, [sp, #8]
 2441 0e24 18001BE5 		ldr	r0, [fp, #-24]
 2442 0e28 0310A0E1 		mov	r1, r3
 2443 0e2c 3220A0E3 		mov	r2, #50
 2444 0e30 3330A0E3 		mov	r3, #51
 2445 0e34 FEFFFFEB 		bl	patron_volteo_test
 447:../reversi8_2018.c ****     patron_volteo_test(tablero,&longitud,'2','3','0','1',FICHA_NEGRA);
 2446              		.loc 1 447 0
 2447 0e38 14304BE2 		sub	r3, fp, #20
 2448 0e3c 3020A0E3 		mov	r2, #48
 2449 0e40 00208DE5 		str	r2, [sp, #0]
 2450 0e44 3120A0E3 		mov	r2, #49
 2451 0e48 04208DE5 		str	r2, [sp, #4]
 2452 0e4c 0220A0E3 		mov	r2, #2
 2453 0e50 08208DE5 		str	r2, [sp, #8]
 2454 0e54 18001BE5 		ldr	r0, [fp, #-24]
 2455 0e58 0310A0E1 		mov	r1, r3
 2456 0e5c 3220A0E3 		mov	r2, #50
 2457 0e60 3330A0E3 		mov	r3, #51
 2458 0e64 FEFFFFEB 		bl	patron_volteo_test
 448:../reversi8_2018.c ****     tablero[2][3]=aux_tablero;
 2459              		.loc 1 448 0
 2460 0e68 18301BE5 		ldr	r3, [fp, #-24]
 2461 0e6c 103083E2 		add	r3, r3, #16
 2462 0e70 0D205BE5 		ldrb	r2, [fp, #-13]
 2463 0e74 0320C3E5 		strb	r2, [r3, #3]
 449:../reversi8_2018.c ****     candidatas[2][3]=aux_candidatas;
 2464              		.loc 1 449 0
 2465 0e78 1C301BE5 		ldr	r3, [fp, #-28]
 2466 0e7c 103083E2 		add	r3, r3, #16
 2467 0e80 0E205BE5 		ldrb	r2, [fp, #-14]
 2468 0e84 0320C3E5 		strb	r2, [r3, #3]
 450:../reversi8_2018.c **** 
 451:../reversi8_2018.c **** }
 2469              		.loc 1 451 0
 2470 0e88 0300A0E1 		mov	r0, r3
 2471 0e8c 0CD04BE2 		sub	sp, fp, #12
 2472 0e90 00689DE8 		ldmfd	sp, {fp, sp, lr}
 2473 0e94 1EFF2FE1 		bx	lr
 2474              	.L60:
 2475              		.align	2
 2476              	.L59:
 2477 0e98 00000000 		.word	CASILLA_OCUPADA
 2478              		.cfi_endproc
 2479              	.LFE10:
 2481              		.align	2
 2482              		.global	reversi8
 2484              	reversi8:
 2485              	.LFB11:
 452:../reversi8_2018.c **** 
 453:../reversi8_2018.c **** 
 454:../reversi8_2018.c **** ////////////////////////////////////////////////////////////////////////////////
 455:../reversi8_2018.c **** // Proceso principal del juego
 456:../reversi8_2018.c **** // Utiliza el tablero,
 457:../reversi8_2018.c **** // y las direcciones en las que indica el jugador la fila y la columna
 458:../reversi8_2018.c **** // y la señal de ready que indica que se han actualizado fila y columna
 459:../reversi8_2018.c **** // tablero, fila, columna y ready son variables globales aunque deberían ser locales de reversi8,
 460:../reversi8_2018.c **** // la razón es que al meterlas en la pila no las pone juntas, y así jugar es más complicado.
 461:../reversi8_2018.c **** // en esta versión el humano lleva negras y la máquina blancas
 462:../reversi8_2018.c **** // no se comprueba que el humano mueva correctamente.
 463:../reversi8_2018.c **** // Sólo que la máquina realice un movimiento correcto.
 464:../reversi8_2018.c **** void reversi8()
 465:../reversi8_2018.c **** {
 2486              		.loc 1 465 0
 2487              		.cfi_startproc
 2488              		@ Function supports interworking.
 2489              		@ args = 0, pretend = 0, frame = 304
 2490              		@ frame_needed = 1, uses_anonymous_args = 0
 2491 0e9c 0DC0A0E1 		mov	ip, sp
 2492              	.LCFI22:
 2493              		.cfi_def_cfa_register 12
 2494 0ea0 F0DF2DE9 		stmfd	sp!, {r4, r5, r6, r7, r8, r9, sl, fp, ip, lr, pc}
 2495 0ea4 04B04CE2 		sub	fp, ip, #4
 2496              		.cfi_offset 14, -8
 2497              		.cfi_offset 13, -12
 2498              		.cfi_offset 11, -16
 2499              		.cfi_offset 10, -20
 2500              		.cfi_offset 9, -24
 2501              		.cfi_offset 8, -28
 2502              		.cfi_offset 7, -32
 2503              		.cfi_offset 6, -36
 2504              		.cfi_offset 5, -40
 2505              		.cfi_offset 4, -44
 2506              	.LCFI23:
 2507              		.cfi_def_cfa 11, 4
 2508 0ea8 4DDF4DE2 		sub	sp, sp, #308
 466:../reversi8_2018.c **** 
 467:../reversi8_2018.c **** 	 ////////////////////////////////////////////////////////////////////
 468:../reversi8_2018.c **** 	 // Tablero candidatas: se usa para no explorar todas las posiciones del tablero
 469:../reversi8_2018.c **** 	// sólo se exploran las que están alrededor de las fichas colocadas
 470:../reversi8_2018.c **** 	 ////////////////////////////////////////////////////////////////////
 471:../reversi8_2018.c **** 	char __attribute__ ((aligned (8))) candidatas[DIM][DIM] =
 2509              		.loc 1 471 0
 2510 0eac 48379FE5 		ldr	r3, .L66
 2511 0eb0 0010D3E5 		ldrb	r1, [r3, #0]	@ zero_extendqisi2
 2512 0eb4 40379FE5 		ldr	r3, .L66
 2513 0eb8 00C0D3E5 		ldrb	ip, [r3, #0]	@ zero_extendqisi2
 2514 0ebc 38379FE5 		ldr	r3, .L66
 2515 0ec0 0040D3E5 		ldrb	r4, [r3, #0]	@ zero_extendqisi2
 2516 0ec4 30379FE5 		ldr	r3, .L66
 2517 0ec8 0060D3E5 		ldrb	r6, [r3, #0]	@ zero_extendqisi2
 2518 0ecc 28379FE5 		ldr	r3, .L66
 2519 0ed0 0080D3E5 		ldrb	r8, [r3, #0]	@ zero_extendqisi2
 2520 0ed4 20379FE5 		ldr	r3, .L66
 2521 0ed8 0090D3E5 		ldrb	r9, [r3, #0]	@ zero_extendqisi2
 2522 0edc 18379FE5 		ldr	r3, .L66
 2523 0ee0 0030D3E5 		ldrb	r3, [r3, #0]	@ zero_extendqisi2
 2524 0ee4 90300BE5 		str	r3, [fp, #-144]
 2525 0ee8 0C379FE5 		ldr	r3, .L66
 2526 0eec 0030D3E5 		ldrb	r3, [r3, #0]	@ zero_extendqisi2
 2527 0ef0 94300BE5 		str	r3, [fp, #-148]
 2528 0ef4 00379FE5 		ldr	r3, .L66
 2529 0ef8 0030D3E5 		ldrb	r3, [r3, #0]	@ zero_extendqisi2
 2530 0efc 98300BE5 		str	r3, [fp, #-152]
 2531 0f00 F4369FE5 		ldr	r3, .L66
 2532 0f04 0030D3E5 		ldrb	r3, [r3, #0]	@ zero_extendqisi2
 2533 0f08 9C300BE5 		str	r3, [fp, #-156]
 2534 0f0c E8369FE5 		ldr	r3, .L66
 2535 0f10 0030D3E5 		ldrb	r3, [r3, #0]	@ zero_extendqisi2
 2536 0f14 A0300BE5 		str	r3, [fp, #-160]
 2537 0f18 DC369FE5 		ldr	r3, .L66
 2538 0f1c 0030D3E5 		ldrb	r3, [r3, #0]	@ zero_extendqisi2
 2539 0f20 A4300BE5 		str	r3, [fp, #-164]
 2540 0f24 D0369FE5 		ldr	r3, .L66
 2541 0f28 0030D3E5 		ldrb	r3, [r3, #0]	@ zero_extendqisi2
 2542 0f2c A8300BE5 		str	r3, [fp, #-168]
 2543 0f30 C4369FE5 		ldr	r3, .L66
 2544 0f34 0030D3E5 		ldrb	r3, [r3, #0]	@ zero_extendqisi2
 2545 0f38 AC300BE5 		str	r3, [fp, #-172]
 2546 0f3c B8369FE5 		ldr	r3, .L66
 2547 0f40 0030D3E5 		ldrb	r3, [r3, #0]	@ zero_extendqisi2
 2548 0f44 B0300BE5 		str	r3, [fp, #-176]
 2549 0f48 AC369FE5 		ldr	r3, .L66
 2550 0f4c 0030D3E5 		ldrb	r3, [r3, #0]	@ zero_extendqisi2
 2551 0f50 B4300BE5 		str	r3, [fp, #-180]
 2552 0f54 A0369FE5 		ldr	r3, .L66
 2553 0f58 0030D3E5 		ldrb	r3, [r3, #0]	@ zero_extendqisi2
 2554 0f5c B8300BE5 		str	r3, [fp, #-184]
 2555 0f60 94369FE5 		ldr	r3, .L66
 2556 0f64 0030D3E5 		ldrb	r3, [r3, #0]	@ zero_extendqisi2
 2557 0f68 BC300BE5 		str	r3, [fp, #-188]
 2558 0f6c 88369FE5 		ldr	r3, .L66
 2559 0f70 0030D3E5 		ldrb	r3, [r3, #0]	@ zero_extendqisi2
 2560 0f74 C0300BE5 		str	r3, [fp, #-192]
 2561 0f78 7C369FE5 		ldr	r3, .L66
 2562 0f7c 0030D3E5 		ldrb	r3, [r3, #0]	@ zero_extendqisi2
 2563 0f80 C4300BE5 		str	r3, [fp, #-196]
 2564 0f84 70369FE5 		ldr	r3, .L66
 2565 0f88 0030D3E5 		ldrb	r3, [r3, #0]	@ zero_extendqisi2
 2566 0f8c C8300BE5 		str	r3, [fp, #-200]
 2567 0f90 64369FE5 		ldr	r3, .L66
 2568 0f94 0030D3E5 		ldrb	r3, [r3, #0]	@ zero_extendqisi2
 2569 0f98 CC300BE5 		str	r3, [fp, #-204]
 2570 0f9c 58369FE5 		ldr	r3, .L66
 2571 0fa0 0030D3E5 		ldrb	r3, [r3, #0]	@ zero_extendqisi2
 2572 0fa4 D0300BE5 		str	r3, [fp, #-208]
 2573 0fa8 4C369FE5 		ldr	r3, .L66
 2574 0fac 0030D3E5 		ldrb	r3, [r3, #0]	@ zero_extendqisi2
 2575 0fb0 D4300BE5 		str	r3, [fp, #-212]
 2576 0fb4 40369FE5 		ldr	r3, .L66
 2577 0fb8 0030D3E5 		ldrb	r3, [r3, #0]	@ zero_extendqisi2
 2578 0fbc D8300BE5 		str	r3, [fp, #-216]
 2579 0fc0 34369FE5 		ldr	r3, .L66
 2580 0fc4 0030D3E5 		ldrb	r3, [r3, #0]	@ zero_extendqisi2
 2581 0fc8 DC300BE5 		str	r3, [fp, #-220]
 2582 0fcc 28369FE5 		ldr	r3, .L66
 2583 0fd0 0030D3E5 		ldrb	r3, [r3, #0]	@ zero_extendqisi2
 2584 0fd4 E0300BE5 		str	r3, [fp, #-224]
 2585 0fd8 1C369FE5 		ldr	r3, .L66
 2586 0fdc 0030D3E5 		ldrb	r3, [r3, #0]	@ zero_extendqisi2
 2587 0fe0 E4300BE5 		str	r3, [fp, #-228]
 2588 0fe4 10369FE5 		ldr	r3, .L66
 2589 0fe8 0030D3E5 		ldrb	r3, [r3, #0]	@ zero_extendqisi2
 2590 0fec E8300BE5 		str	r3, [fp, #-232]
 2591 0ff0 04369FE5 		ldr	r3, .L66
 2592 0ff4 0030D3E5 		ldrb	r3, [r3, #0]	@ zero_extendqisi2
 2593 0ff8 EC300BE5 		str	r3, [fp, #-236]
 2594 0ffc F8359FE5 		ldr	r3, .L66
 2595 1000 0030D3E5 		ldrb	r3, [r3, #0]	@ zero_extendqisi2
 2596 1004 F0300BE5 		str	r3, [fp, #-240]
 2597 1008 EC359FE5 		ldr	r3, .L66
 2598 100c 0030D3E5 		ldrb	r3, [r3, #0]	@ zero_extendqisi2
 2599 1010 F4300BE5 		str	r3, [fp, #-244]
 2600 1014 E0359FE5 		ldr	r3, .L66
 2601 1018 0030D3E5 		ldrb	r3, [r3, #0]	@ zero_extendqisi2
 2602 101c F8300BE5 		str	r3, [fp, #-248]
 2603 1020 D4359FE5 		ldr	r3, .L66
 2604 1024 0030D3E5 		ldrb	r3, [r3, #0]	@ zero_extendqisi2
 2605 1028 FC300BE5 		str	r3, [fp, #-252]
 2606 102c C8359FE5 		ldr	r3, .L66
 2607 1030 0030D3E5 		ldrb	r3, [r3, #0]	@ zero_extendqisi2
 2608 1034 00310BE5 		str	r3, [fp, #-256]
 2609 1038 BC359FE5 		ldr	r3, .L66
 2610 103c 0030D3E5 		ldrb	r3, [r3, #0]	@ zero_extendqisi2
 2611 1040 04310BE5 		str	r3, [fp, #-260]
 2612 1044 B0359FE5 		ldr	r3, .L66
 2613 1048 0030D3E5 		ldrb	r3, [r3, #0]	@ zero_extendqisi2
 2614 104c 08310BE5 		str	r3, [fp, #-264]
 2615 1050 A4359FE5 		ldr	r3, .L66
 2616 1054 0030D3E5 		ldrb	r3, [r3, #0]	@ zero_extendqisi2
 2617 1058 0C310BE5 		str	r3, [fp, #-268]
 2618 105c 98359FE5 		ldr	r3, .L66
 2619 1060 0030D3E5 		ldrb	r3, [r3, #0]	@ zero_extendqisi2
 2620 1064 10310BE5 		str	r3, [fp, #-272]
 2621 1068 8C359FE5 		ldr	r3, .L66
 2622 106c 0030D3E5 		ldrb	r3, [r3, #0]	@ zero_extendqisi2
 2623 1070 14310BE5 		str	r3, [fp, #-276]
 2624 1074 80359FE5 		ldr	r3, .L66
 2625 1078 0030D3E5 		ldrb	r3, [r3, #0]	@ zero_extendqisi2
 2626 107c 18310BE5 		str	r3, [fp, #-280]
 2627 1080 74359FE5 		ldr	r3, .L66
 2628 1084 0030D3E5 		ldrb	r3, [r3, #0]	@ zero_extendqisi2
 2629 1088 1C310BE5 		str	r3, [fp, #-284]
 2630 108c 68359FE5 		ldr	r3, .L66
 2631 1090 0030D3E5 		ldrb	r3, [r3, #0]	@ zero_extendqisi2
 2632 1094 20310BE5 		str	r3, [fp, #-288]
 2633 1098 5C359FE5 		ldr	r3, .L66
 2634 109c 0030D3E5 		ldrb	r3, [r3, #0]	@ zero_extendqisi2
 2635 10a0 24310BE5 		str	r3, [fp, #-292]
 2636 10a4 50359FE5 		ldr	r3, .L66
 2637 10a8 0030D3E5 		ldrb	r3, [r3, #0]	@ zero_extendqisi2
 2638 10ac 28310BE5 		str	r3, [fp, #-296]
 2639 10b0 44359FE5 		ldr	r3, .L66
 2640 10b4 0030D3E5 		ldrb	r3, [r3, #0]	@ zero_extendqisi2
 2641 10b8 2C310BE5 		str	r3, [fp, #-300]
 2642 10bc 38359FE5 		ldr	r3, .L66
 2643 10c0 0030D3E5 		ldrb	r3, [r3, #0]	@ zero_extendqisi2
 2644 10c4 30310BE5 		str	r3, [fp, #-304]
 2645 10c8 2C359FE5 		ldr	r3, .L66
 2646 10cc 0030D3E5 		ldrb	r3, [r3, #0]	@ zero_extendqisi2
 2647 10d0 34310BE5 		str	r3, [fp, #-308]
 2648 10d4 20359FE5 		ldr	r3, .L66
 2649 10d8 0030D3E5 		ldrb	r3, [r3, #0]	@ zero_extendqisi2
 2650 10dc 38310BE5 		str	r3, [fp, #-312]
 2651 10e0 14359FE5 		ldr	r3, .L66
 2652 10e4 0030D3E5 		ldrb	r3, [r3, #0]	@ zero_extendqisi2
 2653 10e8 3C310BE5 		str	r3, [fp, #-316]
 2654 10ec 08359FE5 		ldr	r3, .L66
 2655 10f0 0030D3E5 		ldrb	r3, [r3, #0]	@ zero_extendqisi2
 2656 10f4 40310BE5 		str	r3, [fp, #-320]
 2657 10f8 FC349FE5 		ldr	r3, .L66
 2658 10fc 0030D3E5 		ldrb	r3, [r3, #0]	@ zero_extendqisi2
 2659 1100 44310BE5 		str	r3, [fp, #-324]
 2660 1104 F0349FE5 		ldr	r3, .L66
 2661 1108 0030D3E5 		ldrb	r3, [r3, #0]	@ zero_extendqisi2
 2662 110c 48310BE5 		str	r3, [fp, #-328]
 2663 1110 E4349FE5 		ldr	r3, .L66
 2664 1114 0030D3E5 		ldrb	r3, [r3, #0]	@ zero_extendqisi2
 2665 1118 4C310BE5 		str	r3, [fp, #-332]
 2666 111c D8349FE5 		ldr	r3, .L66
 2667 1120 0030D3E5 		ldrb	r3, [r3, #0]	@ zero_extendqisi2
 2668 1124 50310BE5 		str	r3, [fp, #-336]
 2669 1128 CC349FE5 		ldr	r3, .L66
 2670 112c 0030D3E5 		ldrb	r3, [r3, #0]	@ zero_extendqisi2
 2671 1130 54310BE5 		str	r3, [fp, #-340]
 2672 1134 C0349FE5 		ldr	r3, .L66
 2673 1138 0030D3E5 		ldrb	r3, [r3, #0]	@ zero_extendqisi2
 2674 113c 58310BE5 		str	r3, [fp, #-344]
 2675 1140 B4349FE5 		ldr	r3, .L66
 2676 1144 0030D3E5 		ldrb	r3, [r3, #0]	@ zero_extendqisi2
 2677 1148 5C310BE5 		str	r3, [fp, #-348]
 2678 114c A8349FE5 		ldr	r3, .L66
 2679 1150 00A0D3E5 		ldrb	sl, [r3, #0]	@ zero_extendqisi2
 2680 1154 A0349FE5 		ldr	r3, .L66
 2681 1158 0070D3E5 		ldrb	r7, [r3, #0]	@ zero_extendqisi2
 2682 115c 98349FE5 		ldr	r3, .L66
 2683 1160 0050D3E5 		ldrb	r5, [r3, #0]	@ zero_extendqisi2
 2684 1164 90349FE5 		ldr	r3, .L66
 2685 1168 00E0D3E5 		ldrb	lr, [r3, #0]	@ zero_extendqisi2
 2686 116c 88349FE5 		ldr	r3, .L66
 2687 1170 0000D3E5 		ldrb	r0, [r3, #0]	@ zero_extendqisi2
 2688 1174 80349FE5 		ldr	r3, .L66
 2689 1178 0020D3E5 		ldrb	r2, [r3, #0]	@ zero_extendqisi2
 2690 117c 0130A0E1 		mov	r3, r1
 2691 1180 7C304BE5 		strb	r3, [fp, #-124]
 2692 1184 0C30A0E1 		mov	r3, ip
 2693 1188 7B304BE5 		strb	r3, [fp, #-123]
 2694 118c 0430A0E1 		mov	r3, r4
 2695 1190 7A304BE5 		strb	r3, [fp, #-122]
 2696 1194 0630A0E1 		mov	r3, r6
 2697 1198 79304BE5 		strb	r3, [fp, #-121]
 2698 119c 0830A0E1 		mov	r3, r8
 2699 11a0 78304BE5 		strb	r3, [fp, #-120]
 2700 11a4 0930A0E1 		mov	r3, r9
 2701 11a8 77304BE5 		strb	r3, [fp, #-119]
 2702 11ac 90101BE5 		ldr	r1, [fp, #-144]
 2703 11b0 0130A0E1 		mov	r3, r1
 2704 11b4 76304BE5 		strb	r3, [fp, #-118]
 2705 11b8 94101BE5 		ldr	r1, [fp, #-148]
 2706 11bc 0130A0E1 		mov	r3, r1
 2707 11c0 75304BE5 		strb	r3, [fp, #-117]
 2708 11c4 98101BE5 		ldr	r1, [fp, #-152]
 2709 11c8 0130A0E1 		mov	r3, r1
 2710 11cc 74304BE5 		strb	r3, [fp, #-116]
 2711 11d0 9C101BE5 		ldr	r1, [fp, #-156]
 2712 11d4 0130A0E1 		mov	r3, r1
 2713 11d8 73304BE5 		strb	r3, [fp, #-115]
 2714 11dc A0101BE5 		ldr	r1, [fp, #-160]
 2715 11e0 0130A0E1 		mov	r3, r1
 2716 11e4 72304BE5 		strb	r3, [fp, #-114]
 2717 11e8 A4101BE5 		ldr	r1, [fp, #-164]
 2718 11ec 0130A0E1 		mov	r3, r1
 2719 11f0 71304BE5 		strb	r3, [fp, #-113]
 2720 11f4 A8101BE5 		ldr	r1, [fp, #-168]
 2721 11f8 0130A0E1 		mov	r3, r1
 2722 11fc 70304BE5 		strb	r3, [fp, #-112]
 2723 1200 AC101BE5 		ldr	r1, [fp, #-172]
 2724 1204 0130A0E1 		mov	r3, r1
 2725 1208 6F304BE5 		strb	r3, [fp, #-111]
 2726 120c B0101BE5 		ldr	r1, [fp, #-176]
 2727 1210 0130A0E1 		mov	r3, r1
 2728 1214 6E304BE5 		strb	r3, [fp, #-110]
 2729 1218 B4101BE5 		ldr	r1, [fp, #-180]
 2730 121c 0130A0E1 		mov	r3, r1
 2731 1220 6D304BE5 		strb	r3, [fp, #-109]
 2732 1224 B8101BE5 		ldr	r1, [fp, #-184]
 2733 1228 0130A0E1 		mov	r3, r1
 2734 122c 6C304BE5 		strb	r3, [fp, #-108]
 2735 1230 BC101BE5 		ldr	r1, [fp, #-188]
 2736 1234 0130A0E1 		mov	r3, r1
 2737 1238 6B304BE5 		strb	r3, [fp, #-107]
 2738 123c C0101BE5 		ldr	r1, [fp, #-192]
 2739 1240 0130A0E1 		mov	r3, r1
 2740 1244 6A304BE5 		strb	r3, [fp, #-106]
 2741 1248 C4101BE5 		ldr	r1, [fp, #-196]
 2742 124c 0130A0E1 		mov	r3, r1
 2743 1250 69304BE5 		strb	r3, [fp, #-105]
 2744 1254 C8101BE5 		ldr	r1, [fp, #-200]
 2745 1258 0130A0E1 		mov	r3, r1
 2746 125c 68304BE5 		strb	r3, [fp, #-104]
 2747 1260 CC101BE5 		ldr	r1, [fp, #-204]
 2748 1264 0130A0E1 		mov	r3, r1
 2749 1268 67304BE5 		strb	r3, [fp, #-103]
 2750 126c D0101BE5 		ldr	r1, [fp, #-208]
 2751 1270 0130A0E1 		mov	r3, r1
 2752 1274 66304BE5 		strb	r3, [fp, #-102]
 2753 1278 D4101BE5 		ldr	r1, [fp, #-212]
 2754 127c 0130A0E1 		mov	r3, r1
 2755 1280 65304BE5 		strb	r3, [fp, #-101]
 2756 1284 D8101BE5 		ldr	r1, [fp, #-216]
 2757 1288 0130A0E1 		mov	r3, r1
 2758 128c 64304BE5 		strb	r3, [fp, #-100]
 2759 1290 DC101BE5 		ldr	r1, [fp, #-220]
 2760 1294 0130A0E1 		mov	r3, r1
 2761 1298 63304BE5 		strb	r3, [fp, #-99]
 2762 129c E0101BE5 		ldr	r1, [fp, #-224]
 2763 12a0 0130A0E1 		mov	r3, r1
 2764 12a4 62304BE5 		strb	r3, [fp, #-98]
 2765 12a8 E4101BE5 		ldr	r1, [fp, #-228]
 2766 12ac 0130A0E1 		mov	r3, r1
 2767 12b0 61304BE5 		strb	r3, [fp, #-97]
 2768 12b4 E8101BE5 		ldr	r1, [fp, #-232]
 2769 12b8 0130A0E1 		mov	r3, r1
 2770 12bc 60304BE5 		strb	r3, [fp, #-96]
 2771 12c0 EC101BE5 		ldr	r1, [fp, #-236]
 2772 12c4 0130A0E1 		mov	r3, r1
 2773 12c8 5F304BE5 		strb	r3, [fp, #-95]
 2774 12cc F0101BE5 		ldr	r1, [fp, #-240]
 2775 12d0 0130A0E1 		mov	r3, r1
 2776 12d4 5E304BE5 		strb	r3, [fp, #-94]
 2777 12d8 F4101BE5 		ldr	r1, [fp, #-244]
 2778 12dc 0130A0E1 		mov	r3, r1
 2779 12e0 5D304BE5 		strb	r3, [fp, #-93]
 2780 12e4 F8101BE5 		ldr	r1, [fp, #-248]
 2781 12e8 0130A0E1 		mov	r3, r1
 2782 12ec 5C304BE5 		strb	r3, [fp, #-92]
 2783 12f0 FC101BE5 		ldr	r1, [fp, #-252]
 2784 12f4 0130A0E1 		mov	r3, r1
 2785 12f8 5B304BE5 		strb	r3, [fp, #-91]
 2786 12fc 00111BE5 		ldr	r1, [fp, #-256]
 2787 1300 0130A0E1 		mov	r3, r1
 2788 1304 5A304BE5 		strb	r3, [fp, #-90]
 2789 1308 04111BE5 		ldr	r1, [fp, #-260]
 2790 130c 0130A0E1 		mov	r3, r1
 2791 1310 59304BE5 		strb	r3, [fp, #-89]
 2792 1314 08111BE5 		ldr	r1, [fp, #-264]
 2793 1318 0130A0E1 		mov	r3, r1
 2794 131c 58304BE5 		strb	r3, [fp, #-88]
 2795 1320 0C111BE5 		ldr	r1, [fp, #-268]
 2796 1324 0130A0E1 		mov	r3, r1
 2797 1328 57304BE5 		strb	r3, [fp, #-87]
 2798 132c 10111BE5 		ldr	r1, [fp, #-272]
 2799 1330 0130A0E1 		mov	r3, r1
 2800 1334 56304BE5 		strb	r3, [fp, #-86]
 2801 1338 14111BE5 		ldr	r1, [fp, #-276]
 2802 133c 0130A0E1 		mov	r3, r1
 2803 1340 55304BE5 		strb	r3, [fp, #-85]
 2804 1344 18111BE5 		ldr	r1, [fp, #-280]
 2805 1348 0130A0E1 		mov	r3, r1
 2806 134c 54304BE5 		strb	r3, [fp, #-84]
 2807 1350 1C111BE5 		ldr	r1, [fp, #-284]
 2808 1354 0130A0E1 		mov	r3, r1
 2809 1358 53304BE5 		strb	r3, [fp, #-83]
 2810 135c 20111BE5 		ldr	r1, [fp, #-288]
 2811 1360 0130A0E1 		mov	r3, r1
 2812 1364 52304BE5 		strb	r3, [fp, #-82]
 2813 1368 24111BE5 		ldr	r1, [fp, #-292]
 2814 136c 0130A0E1 		mov	r3, r1
 2815 1370 51304BE5 		strb	r3, [fp, #-81]
 2816 1374 28111BE5 		ldr	r1, [fp, #-296]
 2817 1378 0130A0E1 		mov	r3, r1
 2818 137c 50304BE5 		strb	r3, [fp, #-80]
 2819 1380 2C111BE5 		ldr	r1, [fp, #-300]
 2820 1384 0130A0E1 		mov	r3, r1
 2821 1388 4F304BE5 		strb	r3, [fp, #-79]
 2822 138c 30111BE5 		ldr	r1, [fp, #-304]
 2823 1390 0130A0E1 		mov	r3, r1
 2824 1394 4E304BE5 		strb	r3, [fp, #-78]
 2825 1398 34111BE5 		ldr	r1, [fp, #-308]
 2826 139c 0130A0E1 		mov	r3, r1
 2827 13a0 4D304BE5 		strb	r3, [fp, #-77]
 2828 13a4 38111BE5 		ldr	r1, [fp, #-312]
 2829 13a8 0130A0E1 		mov	r3, r1
 2830 13ac 4C304BE5 		strb	r3, [fp, #-76]
 2831 13b0 3C111BE5 		ldr	r1, [fp, #-316]
 2832 13b4 0130A0E1 		mov	r3, r1
 2833 13b8 4B304BE5 		strb	r3, [fp, #-75]
 2834 13bc 40111BE5 		ldr	r1, [fp, #-320]
 2835 13c0 0130A0E1 		mov	r3, r1
 2836 13c4 4A304BE5 		strb	r3, [fp, #-74]
 2837 13c8 44111BE5 		ldr	r1, [fp, #-324]
 2838 13cc 0130A0E1 		mov	r3, r1
 2839 13d0 49304BE5 		strb	r3, [fp, #-73]
 2840 13d4 48111BE5 		ldr	r1, [fp, #-328]
 2841 13d8 0130A0E1 		mov	r3, r1
 2842 13dc 48304BE5 		strb	r3, [fp, #-72]
 2843 13e0 4C111BE5 		ldr	r1, [fp, #-332]
 2844 13e4 0130A0E1 		mov	r3, r1
 2845 13e8 47304BE5 		strb	r3, [fp, #-71]
 2846 13ec 50111BE5 		ldr	r1, [fp, #-336]
 2847 13f0 0130A0E1 		mov	r3, r1
 2848 13f4 46304BE5 		strb	r3, [fp, #-70]
 2849 13f8 54111BE5 		ldr	r1, [fp, #-340]
 2850 13fc 0130A0E1 		mov	r3, r1
 2851 1400 45304BE5 		strb	r3, [fp, #-69]
 2852 1404 58111BE5 		ldr	r1, [fp, #-344]
 2853 1408 0130A0E1 		mov	r3, r1
 2854 140c 44304BE5 		strb	r3, [fp, #-68]
 2855 1410 5C111BE5 		ldr	r1, [fp, #-348]
 2856 1414 0130A0E1 		mov	r3, r1
 2857 1418 43304BE5 		strb	r3, [fp, #-67]
 2858 141c 0A30A0E1 		mov	r3, sl
 2859 1420 42304BE5 		strb	r3, [fp, #-66]
 2860 1424 0730A0E1 		mov	r3, r7
 2861 1428 41304BE5 		strb	r3, [fp, #-65]
 2862 142c 0530A0E1 		mov	r3, r5
 2863 1430 40304BE5 		strb	r3, [fp, #-64]
 2864 1434 0E30A0E1 		mov	r3, lr
 2865 1438 3F304BE5 		strb	r3, [fp, #-63]
 2866 143c 0030A0E1 		mov	r3, r0
 2867 1440 3E304BE5 		strb	r3, [fp, #-62]
 2868 1444 0230A0E1 		mov	r3, r2
 2869 1448 3D304BE5 		strb	r3, [fp, #-61]
 472:../reversi8_2018.c ****     {
 473:../reversi8_2018.c ****         {NO,NO,NO,NO,NO,NO,NO,NO},
 474:../reversi8_2018.c ****         {NO,NO,NO,NO,NO,NO,NO,NO},
 475:../reversi8_2018.c ****         {NO,NO,NO,NO,NO,NO,NO,NO},
 476:../reversi8_2018.c ****         {NO,NO,NO,NO,NO,NO,NO,NO},
 477:../reversi8_2018.c ****         {NO,NO,NO,NO,NO,NO,NO,NO},
 478:../reversi8_2018.c ****         {NO,NO,NO,NO,NO,NO,NO,NO},
 479:../reversi8_2018.c ****         {NO,NO,NO,NO,NO,NO,NO,NO},
 480:../reversi8_2018.c ****         {NO,NO,NO,NO,NO,NO,NO,NO}
 481:../reversi8_2018.c ****     };
 482:../reversi8_2018.c **** 
 483:../reversi8_2018.c **** 
 484:../reversi8_2018.c ****     int done;     // la máquina ha conseguido mover o no
 485:../reversi8_2018.c ****     int move = 0; // el humano ha conseguido mover o no
 2870              		.loc 1 485 0
 2871 144c 0030A0E3 		mov	r3, #0
 2872 1450 30300BE5 		str	r3, [fp, #-48]
 486:../reversi8_2018.c ****     int blancas, negras; // número de fichas de cada color
 487:../reversi8_2018.c ****     int fin = 0;  // fin vale 1 si el humano no ha podido mover
 2873              		.loc 1 487 0
 2874 1454 0030A0E3 		mov	r3, #0
 2875 1458 34300BE5 		str	r3, [fp, #-52]
 488:../reversi8_2018.c ****                   // (ha introducido un valor de movimiento con algún 8)
 489:../reversi8_2018.c ****                   // y luego la máquina tampoco puede
 490:../reversi8_2018.c ****     char f, c;    // fila y columna elegidas por la máquina para su movimiento
 491:../reversi8_2018.c **** 
 492:../reversi8_2018.c ****     init_table(tablero, candidatas);
 2876              		.loc 1 492 0
 2877 145c 7C304BE2 		sub	r3, fp, #124
 2878 1460 98019FE5 		ldr	r0, .L66+4
 2879 1464 0310A0E1 		mov	r1, r3
 2880 1468 FEFFFFEB 		bl	init_table
 493:../reversi8_2018.c ****     init_test(tablero,candidatas);
 2881              		.loc 1 493 0
 2882 146c 7C304BE2 		sub	r3, fp, #124
 2883 1470 88019FE5 		ldr	r0, .L66+4
 2884 1474 0310A0E1 		mov	r1, r3
 2885 1478 FEFFFFEB 		bl	init_test
 494:../reversi8_2018.c ****     while (fin == 0)
 2886              		.loc 1 494 0
 2887 147c 520000EA 		b	.L62
 2888              	.L65:
 495:../reversi8_2018.c ****     {
 496:../reversi8_2018.c ****         move = 0;
 2889              		.loc 1 496 0
 2890 1480 0030A0E3 		mov	r3, #0
 2891 1484 30300BE5 		str	r3, [fp, #-48]
 497:../reversi8_2018.c ****         leds_on();
 2892              		.loc 1 497 0
 2893 1488 FEFFFFEB 		bl	leds_on
 498:../reversi8_2018.c ****         esperar_mov(&ready);
 2894              		.loc 1 498 0
 2895 148c 70019FE5 		ldr	r0, .L66+8
 2896 1490 FEFFFFEB 		bl	esperar_mov
 499:../reversi8_2018.c ****         // si la fila o columna son 8 asumimos que el jugador no puede mover
 500:../reversi8_2018.c ****         if (((fila) != DIM) && ((columna) != DIM))
 2897              		.loc 1 500 0
 2898 1494 6C319FE5 		ldr	r3, .L66+12
 2899 1498 0030D3E5 		ldrb	r3, [r3, #0]	@ zero_extendqisi2
 2900 149c 080053E3 		cmp	r3, #8
 2901 14a0 2200000A 		beq	.L63
 2902              		.loc 1 500 0 is_stmt 0 discriminator 1
 2903 14a4 60319FE5 		ldr	r3, .L66+16
 2904 14a8 0030D3E5 		ldrb	r3, [r3, #0]	@ zero_extendqisi2
 2905 14ac 080053E3 		cmp	r3, #8
 2906 14b0 1E00000A 		beq	.L63
 501:../reversi8_2018.c ****         {
 502:../reversi8_2018.c ****             tablero[fila][columna] = FICHA_NEGRA;
 2907              		.loc 1 502 0 is_stmt 1
 2908 14b4 4C319FE5 		ldr	r3, .L66+12
 2909 14b8 0030D3E5 		ldrb	r3, [r3, #0]	@ zero_extendqisi2
 2910 14bc 0310A0E1 		mov	r1, r3
 2911 14c0 44319FE5 		ldr	r3, .L66+16
 2912 14c4 0030D3E5 		ldrb	r3, [r3, #0]	@ zero_extendqisi2
 2913 14c8 30219FE5 		ldr	r2, .L66+4
 2914 14cc 8111A0E1 		mov	r1, r1, asl #3
 2915 14d0 033081E0 		add	r3, r1, r3
 2916 14d4 033082E0 		add	r3, r2, r3
 2917 14d8 0220A0E3 		mov	r2, #2
 2918 14dc 0020C3E5 		strb	r2, [r3, #0]
 503:../reversi8_2018.c ****             actualizar_tablero(tablero, fila, columna, FICHA_NEGRA);
 2919              		.loc 1 503 0
 2920 14e0 20319FE5 		ldr	r3, .L66+12
 2921 14e4 0020D3E5 		ldrb	r2, [r3, #0]	@ zero_extendqisi2
 2922 14e8 1C319FE5 		ldr	r3, .L66+16
 2923 14ec 0030D3E5 		ldrb	r3, [r3, #0]	@ zero_extendqisi2
 2924 14f0 08019FE5 		ldr	r0, .L66+4
 2925 14f4 0210A0E1 		mov	r1, r2
 2926 14f8 0320A0E1 		mov	r2, r3
 2927 14fc 0230A0E3 		mov	r3, #2
 2928 1500 FEFFFFEB 		bl	actualizar_tablero
 504:../reversi8_2018.c ****             actualizar_candidatas(candidatas, fila, columna);
 2929              		.loc 1 504 0
 2930 1504 FC309FE5 		ldr	r3, .L66+12
 2931 1508 0020D3E5 		ldrb	r2, [r3, #0]	@ zero_extendqisi2
 2932 150c F8309FE5 		ldr	r3, .L66+16
 2933 1510 0030D3E5 		ldrb	r3, [r3, #0]	@ zero_extendqisi2
 2934 1514 7C104BE2 		sub	r1, fp, #124
 2935 1518 0100A0E1 		mov	r0, r1
 2936 151c 0210A0E1 		mov	r1, r2
 2937 1520 0320A0E1 		mov	r2, r3
 2938 1524 FEFFFFEB 		bl	actualizar_candidatas
 505:../reversi8_2018.c ****             move = 1;
 2939              		.loc 1 505 0
 2940 1528 0130A0E3 		mov	r3, #1
 2941 152c 30300BE5 		str	r3, [fp, #-48]
 2942              	.L63:
 506:../reversi8_2018.c ****         }
 507:../reversi8_2018.c **** 
 508:../reversi8_2018.c ****         // escribe el movimiento en las variables globales fila columna
 509:../reversi8_2018.c ****         done = elegir_mov(candidatas, tablero, &f, &c);
 2943              		.loc 1 509 0
 2944 1530 7C104BE2 		sub	r1, fp, #124
 2945 1534 85204BE2 		sub	r2, fp, #133
 2946 1538 86304BE2 		sub	r3, fp, #134
 2947 153c 0100A0E1 		mov	r0, r1
 2948 1540 B8109FE5 		ldr	r1, .L66+4
 2949 1544 FEFFFFEB 		bl	elegir_mov
 2950 1548 38000BE5 		str	r0, [fp, #-56]
 510:../reversi8_2018.c ****         if (done == -1)
 2951              		.loc 1 510 0
 2952 154c 38301BE5 		ldr	r3, [fp, #-56]
 2953 1550 010073E3 		cmn	r3, #1
 2954 1554 0500001A 		bne	.L64
 511:../reversi8_2018.c ****         {
 512:../reversi8_2018.c ****             if (move == 0)
 2955              		.loc 1 512 0
 2956 1558 30301BE5 		ldr	r3, [fp, #-48]
 2957 155c 000053E3 		cmp	r3, #0
 2958 1560 1900001A 		bne	.L62
 513:../reversi8_2018.c ****                 fin = 1;
 2959              		.loc 1 513 0
 2960 1564 0130A0E3 		mov	r3, #1
 2961 1568 34300BE5 		str	r3, [fp, #-52]
 2962 156c 160000EA 		b	.L62
 2963              	.L64:
 514:../reversi8_2018.c ****         }
 515:../reversi8_2018.c ****         else
 516:../reversi8_2018.c ****         {
 517:../reversi8_2018.c ****             tablero[f][c] = FICHA_BLANCA;
 2964              		.loc 1 517 0
 2965 1570 85305BE5 		ldrb	r3, [fp, #-133]	@ zero_extendqisi2
 2966 1574 0310A0E1 		mov	r1, r3
 2967 1578 86305BE5 		ldrb	r3, [fp, #-134]	@ zero_extendqisi2
 2968 157c 7C209FE5 		ldr	r2, .L66+4
 2969 1580 8111A0E1 		mov	r1, r1, asl #3
 2970 1584 033081E0 		add	r3, r1, r3
 2971 1588 033082E0 		add	r3, r2, r3
 2972 158c 0120A0E3 		mov	r2, #1
 2973 1590 0020C3E5 		strb	r2, [r3, #0]
 518:../reversi8_2018.c ****             actualizar_tablero(tablero, f, c, FICHA_BLANCA);
 2974              		.loc 1 518 0
 2975 1594 85205BE5 		ldrb	r2, [fp, #-133]	@ zero_extendqisi2
 2976 1598 86305BE5 		ldrb	r3, [fp, #-134]	@ zero_extendqisi2
 2977 159c 5C009FE5 		ldr	r0, .L66+4
 2978 15a0 0210A0E1 		mov	r1, r2
 2979 15a4 0320A0E1 		mov	r2, r3
 2980 15a8 0130A0E3 		mov	r3, #1
 2981 15ac FEFFFFEB 		bl	actualizar_tablero
 519:../reversi8_2018.c ****             actualizar_candidatas(candidatas, f, c);
 2982              		.loc 1 519 0
 2983 15b0 85205BE5 		ldrb	r2, [fp, #-133]	@ zero_extendqisi2
 2984 15b4 86305BE5 		ldrb	r3, [fp, #-134]	@ zero_extendqisi2
 2985 15b8 7C104BE2 		sub	r1, fp, #124
 2986 15bc 0100A0E1 		mov	r0, r1
 2987 15c0 0210A0E1 		mov	r1, r2
 2988 15c4 0320A0E1 		mov	r2, r3
 2989 15c8 FEFFFFEB 		bl	actualizar_candidatas
 2990              	.L62:
 494:../reversi8_2018.c ****     while (fin == 0)
 2991              		.loc 1 494 0 discriminator 1
 2992 15cc 34301BE5 		ldr	r3, [fp, #-52]
 2993 15d0 000053E3 		cmp	r3, #0
 2994 15d4 A9FFFF0A 		beq	.L65
 520:../reversi8_2018.c ****         }
 521:../reversi8_2018.c ****     }
 522:../reversi8_2018.c ****     contar(tablero, &blancas, &negras);
 2995              		.loc 1 522 0
 2996 15d8 80204BE2 		sub	r2, fp, #128
 2997 15dc 84304BE2 		sub	r3, fp, #132
 2998 15e0 18009FE5 		ldr	r0, .L66+4
 2999 15e4 0210A0E1 		mov	r1, r2
 3000 15e8 0320A0E1 		mov	r2, r3
 3001 15ec FEFFFFEB 		bl	contar
 523:../reversi8_2018.c **** }
 3002              		.loc 1 523 0
 3003 15f0 28D04BE2 		sub	sp, fp, #40
 3004 15f4 F06F9DE8 		ldmfd	sp, {r4, r5, r6, r7, r8, r9, sl, fp, sp, lr}
 3005 15f8 1EFF2FE1 		bx	lr
 3006              	.L67:
 3007              		.align	2
 3008              	.L66:
 3009 15fc 00000000 		.word	NO
 3010 1600 00000000 		.word	tablero
 3011 1604 00000000 		.word	ready
 3012 1608 00000000 		.word	fila
 3013 160c 00000000 		.word	columna
 3014              		.cfi_endproc
 3015              	.LFE11:
 3017              	.Letext0: